(lp0
(lp1
S'12'
p2
aS'-568'
p3
aS'73\r\n'
p4
aa(lp5
S'-3'
p6
aS'1'
p7
aS'-573'
p8
aS'75\r\n'
p9
aa(lp10
S'2'
p11
aS'-11'
p12
aS'-577'
p13
aS'72\r\n'
p14
aa(lp15
S'7'
p16
aS'-22'
p17
aS'-563'
p18
aS'75\r\n'
p19
aa(lp20
S'9'
p21
aS'-20'
p22
aS'-566'
p23
aS'72\r\n'
p24
aa(lp25
S'0'
p26
aS'-8'
p27
aS'-558'
p28
aS'73\r\n'
p29
aa(lp30
S'-5'
p31
aS'4'
p32
aS'-568'
p33
aS'76\r\n'
p34
aa(lp35
S'-5'
p36
aS'10'
p37
aS'-567'
p38
aS'71\r\n'
p39
aa(lp40
g21
aS'-563'
p41
aS'71\r\n'
p42
aa(lp43
S'-5'
p44
aS'12'
p45
aS'-568'
p46
aS'73\r\n'
p47
aa(lp48
S'-3'
p49
ag7
aS'-573'
p50
aS'75\r\n'
p51
aa(lp52
g11
aS'-11'
p53
aS'-577'
p54
aS'72\r\n'
p55
aa(lp56
g16
aS'-22'
p57
aS'-563'
p58
aS'75\r\n'
p59
aa(lp60
g21
aS'-20'
p61
aS'-566'
p62
aS'72\r\n'
p63
aa(lp64
g26
aS'-8'
p65
aS'-558'
p66
aS'73\r\n'
p67
aa(lp68
S'-5'
p69
ag32
aS'-568'
p70
aS'76\r\n'
p71
aa(lp72
S'-5'
p73
aS'10'
p74
aS'-567'
p75
aS'71\r\n'
p76
aa(lp77
S'-8'
p78
aS'16'
p79
aS'-561'
p80
aS'72\r\n'
p81
aa(lp82
S'-7'
p83
aS'18'
p84
aS'-564'
p85
aS'71\r\n'
p86
aa(lp87
S'-5'
p88
ag32
aS'-555'
p89
aS'71\r\n'
p90
aa(lp91
S'-1'
p92
ag26
aS'-561'
p93
aS'74\r\n'
p94
aa(lp95
g7
aS'-11'
p96
aS'-569'
p97
aS'71\r\n'
p98
aa(lp99
S'5'
p100
aS'-16'
p101
aS'-563'
p102
aS'76\r\n'
p103
aa(lp104
S'6'
p105
aS'-16'
p106
aS'-556'
p107
aS'74\r\n'
p108
aa(lp109
g105
aS'-14'
p110
aS'-556'
p111
aS'72\r\n'
p112
aa(lp113
g7
aS'-6'
p114
aS'-558'
p115
aS'74\r\n'
p116
aa(lp117
S'-5'
p118
ag32
aS'-560'
p119
aS'73\r\n'
p120
aa(lp121
S'-8'
p122
aS'14'
p123
aS'-561'
p124
aS'71\r\n'
p125
aa(lp126
S'-8'
p127
aS'16'
p128
aS'-555'
p129
aS'75\r\n'
p130
aa(lp131
S'-12'
p132
aS'14'
p133
aS'-558'
p134
aS'76\r\n'
p135
aa(lp136
S'-8'
p137
ag16
aS'-560'
p138
aS'72\r\n'
p139
aa(lp140
S'-1'
p141
ag26
aS'-566'
p142
aS'76\r\n'
p143
aa(lp144
g26
aS'-12'
p145
aS'-561'
p146
aS'71\r\n'
p147
aa(lp148
g105
aS'-21'
p149
aS'-568'
p150
aS'76\r\n'
p151
aa(lp152
S'3'
p153
aS'-21'
p154
aS'-566'
p155
aS'72\r\n'
p156
aa(lp157
g7
aS'-16'
p158
aS'-567'
p159
aS'73\r\n'
p160
aa(lp161
S'-3'
p162
aS'-7'
p163
aS'-566'
p164
aS'71\r\n'
p165
aa(lp166
S'-5'
p167
ag26
aS'-567'
p168
aS'76\r\n'
p169
aa(lp170
S'-5'
p171
ag16
aS'-566'
p172
aS'72\r\n'
p173
aa(lp174
S'-4'
p175
aS'10'
p176
aS'-561'
p177
aS'76\r\n'
p178
aa(lp179
S'-3'
p180
ag16
aS'-558'
p181
aS'72\r\n'
p182
aa(lp183
S'-1'
p184
ag153
aS'-562'
p185
aS'76\r\n'
p186
aa(lp187
S'-3'
p188
aS'-2'
p189
aS'-573'
p190
aS'71\r\n'
p191
aa(lp192
S'-5'
p193
aS'-9'
p194
aS'-571'
p195
aS'75\r\n'
p196
aa(lp197
S'-9'
p198
aS'-3'
p199
aS'-567'
p200
aS'75\r\n'
p201
aa(lp202
S'-11'
p203
ag26
aS'-564'
p204
aS'76\r\n'
p205
aa(lp206
S'-11'
p207
ag100
aS'-567'
p208
aS'71\r\n'
p209
aa(lp210
S'-12'
p211
ag16
aS'-573'
p212
aS'73\r\n'
p213
aa(lp214
S'-5'
p215
ag105
aS'-572'
p216
aS'73\r\n'
p217
aa(lp218
S'-5'
p219
ag26
aS'-571'
p220
aS'76\r\n'
p221
aa(lp222
S'-3'
p223
aS'-2'
p224
aS'-568'
p225
aS'76\r\n'
p226
aa(lp227
S'-4'
p228
aS'-2'
p229
aS'-568'
p230
aS'76\r\n'
p231
aa(lp232
S'-6'
p233
aS'-3'
p234
aS'-568'
p235
aS'76\r\n'
p236
aa(lp237
S'-3'
p238
aS'-6'
p239
aS'-567'
p240
aS'72\r\n'
p241
aa(lp242
S'-4'
p243
aS'-7'
p244
aS'-571'
p245
aS'76\r\n'
p246
aa(lp247
S'-3'
p248
aS'-5'
p249
aS'-571'
p250
aS'75\r\n'
p251
aa(lp252
S'-3'
p253
aS'-1'
p254
aS'-571'
p255
aS'74\r\n'
p256
aa(lp257
S'-3'
p258
ag11
aS'-570'
p259
aS'73\r\n'
p260
aa(lp261
S'-2'
p262
ag153
aS'-571'
p263
aS'76\r\n'
p264
aa(lp265
g26
aS'-1'
p266
aS'-570'
p267
aS'72\r\n'
p268
aa(lp269
g11
ag26
aS'-571'
p270
aS'75\r\n'
p271
aa(lp272
S'-2'
p273
ag26
aS'-573'
p274
aS'71\r\n'
p275
aa(lp276
S'-3'
p277
ag7
aS'-577'
p278
aS'72\r\n'
p279
aa(lp280
S'-2'
p281
ag32
aS'-564'
p282
aS'74\r\n'
p283
aa(lp284
g26
ag100
aS'-571'
p285
aS'72\r\n'
p286
aa(lp287
g26
ag32
aS'-573'
p288
aS'76\r\n'
p289
aa(lp290
g26
aS'-1'
p291
aS'-570'
p292
aS'76\r\n'
p293
aa(lp294
g32
aS'-4'
p295
aS'-569'
p296
aS'76\r\n'
p297
aa(lp298
g153
aS'-6'
p299
aS'-565'
p300
aS'72\r\n'
p301
aa(lp302
S'-3'
p303
aS'-2'
p304
aS'-560'
p305
aS'73\r\n'
p306
aa(lp307
S'-3'
p308
aS'-1'
p309
aS'-569'
p310
aS'76\r\n'
p311
aa(lp312
S'-4'
p313
aS'-2'
p314
aS'-567'
p315
aS'76\r\n'
p316
aa(lp317
S'-2'
p318
ag26
aS'-554'
p319
aS'76\r\n'
p320
aa(lp321
S'-3'
p322
ag7
aS'-558'
p323
aS'75\r\n'
p324
aa(lp325
S'-4'
p326
ag7
aS'-556'
p327
aS'74\r\n'
p328
aa(lp329
g26
ag32
aS'-559'
p330
aS'71\r\n'
p331
aa(lp332
S'-3'
p333
ag7
aS'-562'
p334
aS'71\r\n'
p335
aa(lp336
S'-6'
p337
ag11
aS'-561'
p338
aS'71\r\n'
p339
aa(lp340
S'-7'
p341
ag153
aS'-562'
p342
aS'74\r\n'
p343
aa(lp344
S'-3'
p345
ag32
aS'-560'
p346
aS'76\r\n'
p347
aa(lp348
S'-4'
p349
ag153
aS'-565'
p350
aS'74\r\n'
p351
aa(lp352
S'-5'
p353
ag100
aS'-573'
p354
aS'76\r\n'
p355
aa(lp356
S'-5'
p357
aS'10'
p358
aS'-571'
p359
aS'73\r\n'
p360
aa(lp361
g26
ag100
aS'-571'
p362
aS'76\r\n'
p363
aa(lp364
g11
ag11
aS'-569'
p365
aS'72\r\n'
p366
aa(lp367
g100
aS'-3'
p368
aS'-558'
p369
aS'75\r\n'
p370
aa(lp371
S'8'
p372
aS'-8'
p373
aS'-566'
p374
aS'73\r\n'
p375
aa(lp376
S'12'
p377
aS'-12'
p378
aS'-565'
p379
aS'72\r\n'
p380
aa(lp381
g372
aS'-12'
p382
aS'-562'
p383
aS'75\r\n'
p384
aa(lp385
g153
aS'-7'
p386
aS'-564'
p387
aS'76\r\n'
p388
aa(lp389
g7
ag26
aS'-566'
p390
aS'75\r\n'
p391
aa(lp392
g100
ag32
aS'-565'
p393
aS'74\r\n'
p394
aa(lp395
S'-3'
p396
ag100
aS'-572'
p397
aS'71\r\n'
p398
aa(lp399
S'-3'
p400
ag105
aS'-567'
p401
aS'75\r\n'
p402
aa(lp403
g26
ag100
aS'-562'
p404
aS'75\r\n'
p405
aa(lp406
S'10'
p407
ag26
aS'-551'
p408
aS'76\r\n'
p409
aa(lp410
g372
aS'-4'
p411
aS'-554'
p412
aS'76\r\n'
p413
aa(lp414
S'10'
p415
aS'-7'
p416
aS'-558'
p417
aS'74\r\n'
p418
aa(lp419
g21
aS'-9'
p420
aS'-554'
p421
aS'76\r\n'
p422
aa(lp423
g32
aS'-8'
p424
aS'-555'
p425
aS'74\r\n'
p426
aa(lp427
g26
aS'-3'
p428
aS'-553'
p429
aS'76\r\n'
p430
aa(lp431
S'-2'
p432
ag7
aS'-569'
p433
aS'72\r\n'
p434
aa(lp435
S'-5'
p436
ag100
aS'-568'
p437
aS'72\r\n'
p438
aa(lp439
S'-5'
p440
ag105
aS'-573'
p441
aS'73\r\n'
p442
aa(lp443
S'-3'
p444
ag11
aS'-566'
p445
aS'75\r\n'
p446
aa(lp447
g26
ag11
aS'-564'
p448
aS'73\r\n'
p449
aa(lp450
S'-3'
p451
aS'-5'
p452
aS'-570'
p453
aS'75\r\n'
p454
aa(lp455
S'-2'
p456
aS'-7'
p457
aS'-569'
p458
aS'72\r\n'
p459
aa(lp460
g105
aS'-7'
p461
aS'-554'
p462
aS'73\r\n'
p463
aa(lp464
g16
aS'-9'
p465
aS'-559'
p466
aS'72\r\n'
p467
aa(lp468
g105
aS'-7'
p469
aS'-557'
p470
aS'74\r\n'
p471
aa(lp472
g153
aS'-6'
p473
aS'-559'
p474
aS'76\r\n'
p475
aa(lp476
g11
aS'-7'
p477
aS'-550'
p478
aS'72\r\n'
p479
aa(lp480
S'-2'
p481
aS'-2'
p482
aS'-556'
p483
aS'75\r\n'
p484
aa(lp485
S'-2'
p486
ag7
aS'-561'
p487
aS'71\r\n'
p488
aa(lp489
S'-5'
p490
ag32
aS'-569'
p491
aS'71\r\n'
p492
aa(lp493
S'-10'
p494
aS'12'
p495
aS'-568'
p496
aS'76\r\n'
p497
aa(lp498
S'-5'
p499
ag372
aS'-563'
p500
aS'73\r\n'
p501
aa(lp502
g26
ag100
aS'-557'
p503
aS'71\r\n'
p504
aa(lp505
g11
ag11
aS'-559'
p506
aS'74\r\n'
p507
aa(lp508
S'-4'
p509
aS'-1'
p510
aS'-563'
p511
aS'76\r\n'
p512
aa(lp513
S'-3'
p514
ag7
aS'-569'
p515
aS'76\r\n'
p516
aa(lp517
S'-2'
p518
ag26
aS'-569'
p519
aS'73\r\n'
p520
aa(lp521
S'-7'
p522
aS'-1'
p523
aS'-565'
p524
aS'74\r\n'
p525
aa(lp526
S'-8'
p527
aS'-5'
p528
aS'-564'
p529
aS'72\r\n'
p530
aa(lp531
S'-6'
p532
aS'-1'
p533
aS'-562'
p534
aS'73\r\n'
p535
aa(lp536
S'-7'
p537
ag7
aS'-561'
p538
aS'72\r\n'
p539
aa(lp540
S'-7'
p541
aS'-2'
p542
aS'-566'
p543
aS'74\r\n'
p544
aa(lp545
S'-5'
p546
ag32
aS'-561'
p547
aS'73\r\n'
p548
aa(lp549
S'-4'
p550
aS'10'
p551
aS'-558'
p552
aS'74\r\n'
p553
aa(lp554
S'-3'
p555
ag100
aS'-554'
p556
aS'76\r\n'
p557
aa(lp558
S'-4'
p559
ag7
aS'-556'
p560
aS'75\r\n'
p561
aa(lp562
S'-3'
p563
aS'-1'
p564
aS'-555'
p565
aS'74\r\n'
p566
aa(lp567
S'-2'
p568
aS'-5'
p569
aS'-566'
p570
aS'75\r\n'
p571
aa(lp572
S'-3'
p573
aS'-5'
p574
aS'-563'
p575
aS'72\r\n'
p576
aa(lp577
S'-2'
p578
aS'-5'
p579
aS'-566'
p580
aS'76\r\n'
p581
aa(lp582
g26
ag7
aS'-570'
p583
aS'72\r\n'
p584
aa(lp585
S'-2'
p586
ag100
aS'-566'
p587
aS'73\r\n'
p588
aa(lp589
S'-4'
p590
ag7
aS'-563'
p591
aS'74\r\n'
p592
aa(lp593
S'-3'
p594
ag11
aS'-557'
p595
aS'73\r\n'
p596
aa(lp597
g26
aS'-9'
p598
aS'-565'
p599
aS'76\r\n'
p600
aa(lp601
g16
aS'-14'
p602
aS'-567'
p603
aS'73\r\n'
p604
aa(lp605
g153
aS'-11'
p606
aS'-565'
p607
aS'75\r\n'
p608
aa(lp609
g26
aS'-2'
p610
aS'-567'
p611
aS'73\r\n'
p612
aa(lp613
S'-2'
p614
ag21
aS'-570'
p615
aS'72\r\n'
p616
aa(lp617
S'-4'
p618
aS'12'
p619
aS'-566'
p620
aS'75\r\n'
p621
aa(lp622
S'-11'
p623
aS'14'
p624
aS'-565'
p625
aS'71\r\n'
p626
aa(lp627
S'-9'
p628
aS'15'
p629
aS'-569'
p630
aS'75\r\n'
p631
aa(lp632
S'-3'
p633
aS'13'
p634
aS'-560'
p635
aS'71\r\n'
p636
aa(lp637
S'-4'
p638
ag32
aS'-557'
p639
aS'76\r\n'
p640
aa(lp641
g32
aS'-8'
p642
aS'-560'
p643
aS'75\r\n'
p644
aa(lp645
g21
aS'-23'
p646
aS'-561'
p647
aS'71\r\n'
p648
aa(lp649
g100
aS'-20'
p650
aS'-562'
p651
aS'75\r\n'
p652
aa(lp653
g26
aS'-17'
p654
aS'-569'
p655
aS'72\r\n'
p656
aa(lp657
S'-3'
p658
aS'-11'
p659
aS'-576'
p660
aS'73\r\n'
p661
aa(lp662
S'-6'
p663
aS'-5'
p664
aS'-575'
p665
aS'74\r\n'
p666
aa(lp667
S'-8'
p668
ag32
aS'-566'
p669
aS'72\r\n'
p670
aa(lp671
S'-7'
p672
ag11
aS'-557'
p673
aS'73\r\n'
p674
aa(lp675
S'-11'
p676
ag153
aS'-560'
p677
aS'72\r\n'
p678
aa(lp679
S'-10'
p680
ag11
aS'-563'
p681
aS'75\r\n'
p682
aa(lp683
S'-7'
p684
ag153
aS'-562'
p685
aS'73\r\n'
p686
aa(lp687
S'-1'
p688
aS'-3'
p689
aS'-563'
p690
aS'76\r\n'
p691
aa(lp692
g11
aS'-5'
p693
aS'-566'
p694
aS'73\r\n'
p695
aa(lp696
g153
aS'-2'
p697
aS'-566'
p698
aS'74\r\n'
p699
aa(lp700
g11
ag32
aS'-579'
p701
aS'71\r\n'
p702
aa(lp703
g26
ag105
aS'-581'
p704
aS'76\r\n'
p705
aa(lp706
S'-6'
p707
ag21
aS'-568'
p708
aS'71\r\n'
p709
aa(lp710
g26
ag16
aS'-559'
p711
aS'75\r\n'
p712
aa(lp713
g26
ag372
aS'-564'
p714
aS'75\r\n'
p715
aa(lp716
g26
aS'10'
p717
aS'-561'
p718
aS'71\r\n'
p719
aa(lp720
g153
ag16
aS'-555'
p721
aS'74\r\n'
p722
aa(lp723
g26
ag372
aS'-553'
p724
aS'73\r\n'
p725
aa(lp726
S'-5'
p727
ag21
aS'-564'
p728
aS'75\r\n'
p729
aa(lp730
S'-4'
p731
ag11
aS'-565'
p732
aS'72\r\n'
p733
aa(lp734
S'-5'
p735
aS'-1'
p736
aS'-565'
p737
aS'75\r\n'
p738
aa(lp739
S'-2'
p740
aS'-5'
p741
aS'-561'
p742
aS'71\r\n'
p743
aa(lp744
g11
aS'-8'
p745
aS'-566'
p746
aS'73\r\n'
p747
aa(lp748
g26
aS'-4'
p749
aS'-580'
p750
aS'71\r\n'
p751
aa(lp752
S'-2'
p753
ag11
aS'-584'
p754
aS'71\r\n'
p755
aa(lp756
S'-5'
p757
ag100
aS'-581'
p758
aS'72\r\n'
p759
aa(lp760
S'-6'
p761
ag105
aS'-578'
p762
aS'72\r\n'
p763
aa(lp764
S'-4'
p765
aS'10'
p766
aS'-576'
p767
aS'73\r\n'
p768
aa(lp769
S'-7'
p770
aS'13'
p771
aS'-568'
p772
aS'76\r\n'
p773
aa(lp774
g26
ag105
aS'-563'
p775
aS'76\r\n'
p776
aa(lp777
S'-2'
p778
ag11
aS'-561'
p779
aS'71\r\n'
p780
aa(lp781
g26
ag26
aS'-562'
p782
aS'71\r\n'
p783
aa(lp784
g372
aS'-8'
p785
aS'-558'
p786
aS'72\r\n'
p787
aa(lp788
g153
aS'-9'
p789
aS'-549'
p790
aS'72\r\n'
p791
aa(lp792
g26
aS'-9'
p793
aS'-556'
p794
aS'74\r\n'
p795
aa(lp796
S'-3'
p797
ag26
aS'-559'
p798
aS'73\r\n'
p799
aa(lp800
S'-6'
p801
ag32
aS'-562'
p802
aS'72\r\n'
p803
aa(lp804
S'-1'
p805
ag153
aS'-563'
p806
aS'74\r\n'
p807
aa(lp808
S'-4'
p809
ag100
aS'-561'
p810
aS'76\r\n'
p811
aa(lp812
S'-9'
p813
ag16
aS'-566'
p814
aS'76\r\n'
p815
aa(lp816
S'-8'
p817
ag16
aS'-562'
p818
aS'73\r\n'
p819
aa(lp820
S'-6'
p821
ag11
aS'-568'
p822
aS'73\r\n'
p823
aa(lp824
S'-2'
p825
aS'-6'
p826
aS'-561'
p827
aS'75\r\n'
p828
aa(lp829
g26
aS'-9'
p830
aS'-568'
p831
aS'73\r\n'
p832
aa(lp833
g11
aS'-13'
p834
aS'-566'
p835
aS'73\r\n'
p836
aa(lp837
g11
aS'-3'
p838
aS'-567'
p839
aS'72\r\n'
p840
aa(lp841
S'-1'
p842
aS'-2'
p843
aS'-566'
p844
aS'76\r\n'
p845
aa(lp846
S'-3'
p847
ag153
aS'-564'
p848
aS'76\r\n'
p849
aa(lp850
S'-2'
p851
ag11
aS'-564'
p852
aS'75\r\n'
p853
aa(lp854
S'-4'
p855
ag26
aS'-563'
p856
aS'74\r\n'
p857
aa(lp858
S'-6'
p859
ag100
aS'-567'
p860
aS'72\r\n'
p861
aa(lp862
S'-7'
p863
ag26
aS'-558'
p864
aS'74\r\n'
p865
aa(lp866
S'-4'
p867
aS'-1'
p868
aS'-558'
p869
aS'74\r\n'
p870
aa(lp871
g11
aS'-5'
p872
aS'-564'
p873
aS'75\r\n'
p874
aa(lp875
g153
aS'-14'
p876
aS'-565'
p877
aS'72\r\n'
p878
aa(lp879
S'10'
p880
aS'-14'
p881
aS'-559'
p882
aS'71\r\n'
p883
aa(lp884
S'10'
p885
aS'-12'
p886
aS'-564'
p887
aS'71\r\n'
p888
aa(lp889
S'11'
p890
aS'-8'
p891
aS'-567'
p892
aS'75\r\n'
p893
aa(lp894
g105
aS'-7'
p895
aS'-562'
p896
aS'75\r\n'
p897
aa(lp898
g11
ag100
aS'-556'
p899
aS'71\r\n'
p900
aa(lp901
S'-2'
p902
ag16
aS'-555'
p903
aS'75\r\n'
p904
aa(lp905
S'-4'
p906
aS'16'
p907
aS'-560'
p908
aS'72\r\n'
p909
aa(lp910
S'-2'
p911
aS'16'
p912
aS'-552'
p913
aS'71\r\n'
p914
aa(lp915
S'-2'
p916
ag16
aS'-555'
p917
aS'72\r\n'
p918
aa(lp919
g26
ag16
aS'-555'
p920
aS'74\r\n'
p921
aa(lp922
S'-2'
p923
aS'-1'
p924
aS'-569'
p925
aS'75\r\n'
p926
aa(lp927
S'-5'
p928
ag26
aS'-570'
p929
aS'74\r\n'
p930
aa(lp931
S'-7'
p932
aS'-4'
p933
aS'-566'
p934
aS'72\r\n'
p935
aa(lp936
S'-9'
p937
aS'-1'
p938
aS'-564'
p939
aS'72\r\n'
p940
aa(lp941
S'-4'
p942
aS'-5'
p943
aS'-565'
p944
aS'72\r\n'
p945
aa(lp946
S'-3'
p947
aS'-6'
p948
aS'-565'
p949
aS'72\r\n'
p950
aa(lp951
S'-10'
p952
ag26
aS'-559'
p953
aS'71\r\n'
p954
aa(lp955
S'-6'
p956
ag7
aS'-566'
p957
aS'75\r\n'
p958
aa(lp959
S'-5'
p960
ag16
aS'-572'
p961
aS'74\r\n'
p962
aa(lp963
S'-4'
p964
aS'12'
p965
aS'-563'
p966
aS'76\r\n'
p967
aa(lp968
S'-4'
p969
aS'10'
p970
aS'-574'
p971
aS'72\r\n'
p972
aa(lp973
S'-5'
p974
ag11
aS'-579'
p975
aS'71\r\n'
p976
aa(lp977
S'-1'
p978
aS'-6'
p979
aS'-579'
p980
aS'71\r\n'
p981
aa(lp982
S'-3'
p983
aS'-9'
p984
aS'-577'
p985
aS'76\r\n'
p986
aa(lp987
S'-5'
p988
aS'-8'
p989
aS'-584'
p990
aS'74\r\n'
p991
aa(lp992
S'-4'
p993
aS'-12'
p994
aS'-577'
p995
aS'75\r\n'
p996
aa(lp997
S'-3'
p998
aS'-1'
p999
aS'-583'
p1000
aS'71\r\n'
p1001
aa(lp1002
S'-1'
p1003
ag105
aS'-578'
p1004
aS'72\r\n'
p1005
aa(lp1006
S'-1'
p1007
ag32
aS'-574'
p1008
aS'75\r\n'
p1009
aa(lp1010
S'-2'
p1011
ag21
aS'-584'
p1012
aS'73\r\n'
p1013
aa(lp1014
g7
ag372
aS'-583'
p1015
aS'74\r\n'
p1016
aa(lp1017
S'-1'
p1018
ag21
aS'-578'
p1019
aS'76\r\n'
p1020
aa(lp1021
S'-1'
p1022
ag11
aS'-575'
p1023
aS'71\r\n'
p1024
aa(lp1025
S'-2'
p1026
ag11
aS'-566'
p1027
aS'72\r\n'
p1028
aa(lp1029
g7
aS'-2'
p1030
aS'-565'
p1031
aS'72\r\n'
p1032
aa(lp1033
g11
aS'-1'
p1034
aS'-564'
p1035
aS'73\r\n'
p1036
aa(lp1037
g32
aS'-3'
p1038
aS'-570'
p1039
aS'71\r\n'
p1040
aa(lp1041
g26
aS'-5'
p1042
aS'-565'
p1043
aS'73\r\n'
p1044
aa(lp1045
S'-2'
p1046
aS'-7'
p1047
aS'-568'
p1048
aS'75\r\n'
p1049
aa(lp1050
S'-2'
p1051
aS'-6'
p1052
aS'-568'
p1053
aS'71\r\n'
p1054
aa(lp1055
S'-1'
p1056
aS'-2'
p1057
aS'-567'
p1058
aS'72\r\n'
p1059
aa(lp1060
S'-1'
p1061
ag26
aS'-573'
p1062
aS'72\r\n'
p1063
aa(lp1064
S'-3'
p1065
ag153
aS'-574'
p1066
aS'76\r\n'
p1067
aa(lp1068
S'-5'
p1069
ag100
aS'-576'
p1070
aS'73\r\n'
p1071
aa(lp1072
S'-5'
p1073
ag7
aS'-578'
p1074
aS'73\r\n'
p1075
aa(lp1076
S'-6'
p1077
ag11
aS'-571'
p1078
aS'73\r\n'
p1079
aa(lp1080
S'-4'
p1081
ag7
aS'-556'
p1082
aS'72\r\n'
p1083
aa(lp1084
S'-1'
p1085
ag26
aS'-559'
p1086
aS'74\r\n'
p1087
aa(lp1088
S'-3'
p1089
aS'-6'
p1090
aS'-560'
p1091
aS'71\r\n'
p1092
aa(lp1093
S'-6'
p1094
aS'-2'
p1095
aS'-557'
p1096
aS'72\r\n'
p1097
aa(lp1098
S'-6'
p1099
aS'-3'
p1100
aS'-557'
p1101
aS'74\r\n'
p1102
aa(lp1103
S'-3'
p1104
aS'-2'
p1105
aS'-571'
p1106
aS'75\r\n'
p1107
aa(lp1108
S'-1'
p1109
ag11
aS'-562'
p1110
aS'73\r\n'
p1111
aa(lp1112
S'-4'
p1113
ag372
aS'-557'
p1114
aS'75\r\n'
p1115
aa(lp1116
S'-6'
p1117
ag372
aS'-556'
p1118
aS'74\r\n'
p1119
aa(lp1120
S'-5'
p1121
ag105
aS'-561'
p1122
aS'74\r\n'
p1123
aa(lp1124
S'-2'
p1125
ag26
aS'-556'
p1126
aS'75\r\n'
p1127
aa(lp1128
g7
ag26
aS'-560'
p1129
aS'76\r\n'
p1130
aa(lp1131
S'-1'
p1132
aS'-1'
p1133
aS'-560'
p1134
aS'75\r\n'
p1135
aa(lp1136
S'-4'
p1137
ag7
aS'-556'
p1138
aS'74\r\n'
p1139
aa(lp1140
S'-3'
p1141
aS'-1'
p1142
aS'-555'
p1143
aS'71\r\n'
p1144
aa(lp1145
S'-1'
p1146
aS'-2'
p1147
aS'-558'
p1148
aS'72\r\n'
p1149
aa(lp1150
S'-4'
p1151
aS'-1'
p1152
aS'-559'
p1153
aS'74\r\n'
p1154
aa(lp1155
S'-3'
p1156
ag372
aS'-558'
p1157
aS'75\r\n'
p1158
aa(lp1159
S'-7'
p1160
ag21
aS'-555'
p1161
aS'75\r\n'
p1162
aa(lp1163
S'-8'
p1164
aS'10'
p1165
aS'-558'
p1166
aS'72\r\n'
p1167
aa(lp1168
S'-10'
p1169
aS'10'
p1170
aS'-564'
p1171
aS'75\r\n'
p1172
aa(lp1173
S'-1'
p1174
ag153
aS'-570'
p1175
aS'75\r\n'
p1176
aa(lp1177
S'-4'
p1178
ag26
aS'-561'
p1179
aS'76\r\n'
p1180
aa(lp1181
g11
aS'-2'
p1182
aS'-565'
p1183
aS'76\r\n'
p1184
aa(lp1185
g32
aS'-8'
p1186
aS'-568'
p1187
aS'75\r\n'
p1188
aa(lp1189
g26
aS'-8'
p1190
aS'-571'
p1191
aS'74\r\n'
p1192
aa(lp1193
g7
aS'-9'
p1194
aS'-569'
p1195
aS'76\r\n'
p1196
aa(lp1197
g153
aS'-1'
p1198
aS'-562'
p1199
aS'75\r\n'
p1200
aa(lp1201
g26
aS'74\r\n'
p1202
aa(lp1203
g153
aS'-2'
p1204
aS'-571'
p1205
aS'74\r\n'
p1206
aa(lp1207
g32
aS'-5'
p1208
aS'-563'
p1209
aS'72\r\n'
p1210
aa(lp1211
g16
aS'-9'
p1212
aS'-552'
p1213
aS'76\r\n'
p1214
aa(lp1215
g100
ag26
aS'-565'
p1216
aS'75\r\n'
p1217
aa(lp1218
g105
ag7
aS'-566'
p1219
aS'74\r\n'
p1220
aa(lp1221
g153
ag7
aS'-569'
p1222
aS'72\r\n'
p1223
aa(lp1224
g7
ag7
aS'-568'
p1225
aS'71\r\n'
p1226
aa(lp1227
g7
ag32
aS'-569'
p1228
aS'74\r\n'
p1229
aa(lp1230
g7
ag21
aS'-564'
p1231
aS'75\r\n'
p1232
aa(lp1233
S'560'
p1234
aS'74\r\n'
p1235
aa(lp1236
g153
aS'-2'
p1237
aS'-571'
p1238
aS'74\r\n'
p1239
aa(lp1240
g32
aS'-5'
p1241
aS'-563'
p1242
aS'72\r\n'
p1243
aa(lp1244
g16
aS'-9'
p1245
aS'-552'
p1246
aS'76\r\n'
p1247
aa(lp1248
g100
ag26
aS'-565'
p1249
aS'75\r\n'
p1250
aa(lp1251
g105
ag7
aS'-566'
p1252
aS'74\r\n'
p1253
aa(lp1254
g153
ag7
aS'-569'
p1255
aS'72\r\n'
p1256
aa(lp1257
g7
ag7
aS'-568'
p1258
aS'71\r\n'
p1259
aa(lp1260
g7
ag32
aS'-569'
p1261
aS'74\r\n'
p1262
aa(lp1263
g7
ag21
aS'-564'
p1264
aS'75\r\n'
p1265
aa(lp1266
g7
ag372
aS'-571'
p1267
aS'76\r\n'
p1268
aa(lp1269
g26
ag21
aS'-573'
p1270
aS'74\r\n'
p1271
aa(lp1272
g7
ag372
aS'-569'
p1273
aS'72\r\n'
p1274
aa(lp1275
g26
ag32
aS'-560'
p1276
aS'72\r\n'
p1277
aa(lp1278
g11
ag11
aS'-571'
p1279
aS'74\r\n'
p1280
aa(lp1281
g105
ag26
aS'-570'
p1282
aS'72\r\n'
p1283
aa(lp1284
g100
ag26
aS'-560'
p1285
aS'75\r\n'
p1286
aa(lp1287
g7
ag153
aS'-560'
p1288
aS'71\r\n'
p1289
aa(lp1290
S'-1'
p1291
ag105
aS'-566'
p1292
aS'76\r\n'
p1293
aa(lp1294
S'-2'
p1295
ag16
aS'-559'
p1296
aS'71\r\n'
p1297
aa(lp1298
S'-4'
p1299
ag21
aS'-562'
p1300
aS'72\r\n'
p1301
aa(lp1302
g26
ag16
aS'-559'
p1303
aS'72\r\n'
p1304
aa(lp1305
S'-2'
p1306
ag153
aS'-557'
p1307
aS'75\r\n'
p1308
aa(lp1309
S'-3'
p1310
ag153
aS'-553'
p1311
aS'75\r\n'
p1312
aa(lp1313
g7
ag16
aS'-557'
p1314
aS'75\r\n'
p1315
aa(lp1316
g11
ag11
aS'-565'
p1317
aS'75\r\n'
p1318
aa(lp1319
g26
ag11
aS'-564'
p1320
aS'74\r\n'
p1321
aa(lp1322
g7
ag11
aS'-567'
p1323
aS'76\r\n'
p1324
aa(lp1325
S'-3'
p1326
ag32
aS'-558'
p1327
aS'75\r\n'
p1328
aa(lp1329
S'-4'
p1330
ag16
aS'-567'
p1331
aS'75\r\n'
p1332
aa(lp1333
S'-3'
p1334
ag32
aS'-568'
p1335
aS'75\r\n'
p1336
aa(lp1337
S'-2'
p1338
ag100
aS'-566'
p1339
aS'71\r\n'
p1340
aa(lp1341
S'-8'
p1342
aS'16'
p1343
aS'-561'
p1344
aS'71\r\n'
p1345
aa(lp1346
S'-11'
p1347
aS'17'
p1348
aS'-567'
p1349
aS'74\r\n'
p1350
aa(lp1351
S'-6'
p1352
aS'10'
p1353
aS'-566'
p1354
aS'76\r\n'
p1355
aa(lp1356
S'-1'
p1357
ag32
aS'-565'
p1358
aS'74\r\n'
p1359
aa(lp1360
g7
ag32
aS'-567'
p1361
aS'75\r\n'
p1362
aa(lp1363
g11
ag26
aS'-568'
p1364
aS'72\r\n'
p1365
aa(lp1366
g153
aS'-1'
p1367
aS'-571'
p1368
aS'72\r\n'
p1369
aa(lp1370
S'-3'
p1371
aS'-1'
p1372
aS'-572'
p1373
aS'71\r\n'
p1374
aa(lp1375
g26
ag26
aS'-561'
p1376
aS'73\r\n'
p1377
aa(lp1378
S'-4'
p1379
ag11
aS'-558'
p1380
aS'72\r\n'
p1381
aa(lp1382
S'-7'
p1383
ag100
aS'-555'
p1384
aS'75\r\n'
p1385
aa(lp1386
S'-8'
p1387
aS'12'
p1388
aS'-550'
p1389
aS'76\r\n'
p1390
aa(lp1391
S'-4'
p1392
aS'13'
p1393
aS'-549'
p1394
aS'73\r\n'
p1395
aa(lp1396
S'-7'
p1397
aS'11'
p1398
aS'-548'
p1399
aS'72\r\n'
p1400
aa(lp1401
S'-7'
p1402
ag21
aS'-560'
p1403
aS'71\r\n'
p1404
aa(lp1405
g11
ag105
aS'-559'
p1406
aS'71\r\n'
p1407
aa(lp1408
g11
ag26
aS'-562'
p1409
aS'74\r\n'
p1410
aa(lp1411
g7
ag153
aS'-558'
p1412
aS'74\r\n'
p1413
aa(lp1414
S'-4'
p1415
ag100
aS'-552'
p1416
aS'75\r\n'
p1417
aa(lp1418
S'-3'
p1419
ag11
aS'-555'
p1420
aS'75\r\n'
p1421
aa(lp1422
S'-5'
p1423
ag153
aS'-550'
p1424
aS'74\r\n'
p1425
aa(lp1426
S'-4'
p1427
ag32
aS'-553'
p1428
aS'74\r\n'
p1429
aa(lp1430
S'-4'
p1431
ag16
aS'-555'
p1432
aS'74\r\n'
p1433
aa(lp1434
g153
ag32
aS'-557'
p1435
aS'73\r\n'
p1436
aa(lp1437
S'10'
p1438
ag16
aS'-562'
p1439
aS'76\r\n'
p1440
aa(lp1441
g21
ag16
aS'-563'
p1442
aS'72\r\n'
p1443
aa(lp1444
g105
ag11
aS'-557'
p1445
aS'75\r\n'
p1446
aa(lp1447
g7
ag26
aS'-555'
p1448
aS'73\r\n'
p1449
aa(lp1450
g26
ag32
aS'-555'
p1451
aS'74\r\n'
p1452
aa(lp1453
g7
ag21
aS'-559'
p1454
aS'72\r\n'
p1455
aa(lp1456
S'-3'
p1457
aS'13'
p1458
aS'-559'
p1459
aS'71\r\n'
p1460
aa(lp1461
S'-6'
p1462
aS'14'
p1463
aS'-556'
p1464
aS'76\r\n'
p1465
aa(lp1466
S'-3'
p1467
aS'11'
p1468
aS'-556'
p1469
aS'76\r\n'
p1470
aa(lp1471
S'-2'
p1472
ag372
aS'-557'
p1473
aS'72\r\n'
p1474
aa(lp1475
g153
ag11
aS'-554'
p1476
aS'72\r\n'
p1477
aa(lp1478
g105
aS'-1'
p1479
aS'-546'
p1480
aS'71\r\n'
p1481
aa(lp1482
g11
aS'-8'
p1483
aS'-561'
p1484
aS'75\r\n'
p1485
aa(lp1486
g7
aS'-11'
p1487
aS'-553'
p1488
aS'76\r\n'
p1489
aa(lp1490
g153
aS'-10'
p1491
aS'-557'
p1492
aS'75\r\n'
p1493
aa(lp1494
g7
ag26
aS'-560'
p1495
aS'75\r\n'
p1496
aa(lp1497
S'-2'
p1498
ag26
aS'-555'
p1499
aS'72\r\n'
p1500
aa(lp1501
S'-3'
p1502
ag11
aS'-559'
p1503
aS'76\r\n'
p1504
aa(lp1505
S'-2'
p1506
ag16
aS'-564'
p1507
aS'76\r\n'
p1508
aa(lp1509
S'-5'
p1510
ag105
aS'-561'
p1511
aS'76\r\n'
p1512
aa(lp1513
S'-1'
p1514
ag372
aS'-561'
p1515
aS'71\r\n'
p1516
aa(lp1517
g26
ag105
aS'-564'
p1518
aS'76\r\n'
p1519
aa(lp1520
g26
ag26
aS'-561'
p1521
aS'76\r\n'
p1522
aa(lp1523
g26
ag105
aS'-559'
p1524
aS'76\r\n'
p1525
aa(lp1526
S'-2'
p1527
ag105
aS'-562'
p1528
aS'74\r\n'
p1529
aa(lp1530
g153
ag7
aS'-557'
p1531
aS'76\r\n'
p1532
aa(lp1533
g153
aS'-5'
p1534
aS'-560'
p1535
aS'73\r\n'
p1536
aa(lp1537
g11
aS'-4'
p1538
aS'-562'
p1539
aS'76\r\n'
p1540
aa(lp1541
S'-5'
p1542
ag26
aS'-565'
p1543
aS'71\r\n'
p1544
aa(lp1545
S'-7'
p1546
ag7
aS'-562'
p1547
aS'75\r\n'
p1548
aa(lp1549
S'-7'
p1550
ag100
aS'-554'
p1551
aS'73\r\n'
p1552
aa(lp1553
S'-5'
p1554
ag32
aS'-560'
p1555
aS'73\r\n'
p1556
aa(lp1557
S'-5'
p1558
ag153
aS'-563'
p1559
aS'73\r\n'
p1560
aa(lp1561
S'-8'
p1562
ag100
aS'-571'
p1563
aS'76\r\n'
p1564
aa(lp1565
S'-6'
p1566
ag100
aS'-570'
p1567
aS'75\r\n'
p1568
aa(lp1569
S'-4'
p1570
aS'-2'
p1571
aS'-557'
p1572
aS'74\r\n'
p1573
aa(lp1574
S'-8'
p1575
aS'-6'
p1576
aS'-559'
p1577
aS'71\r\n'
p1578
aa(lp1579
S'-4'
p1580
aS'-3'
p1581
aS'-556'
p1582
aS'74\r\n'
p1583
aa(lp1584
S'-3'
p1585
aS'-1'
p1586
aS'-552'
p1587
aS'72\r\n'
p1588
aa(lp1589
g26
ag26
aS'-554'
p1590
aS'76\r\n'
p1591
aa(lp1592
g7
ag21
aS'-556'
p1593
aS'71\r\n'
p1594
aa(lp1595
S'-1'
p1596
ag372
aS'-559'
p1597
aS'75\r\n'
p1598
aa(lp1599
g7
ag153
aS'-556'
p1600
aS'76\r\n'
p1601
aa(lp1602
S'-2'
p1603
ag7
aS'-560'
p1604
aS'74\r\n'
p1605
aa(lp1606
g26
aS'-2'
p1607
aS'-564'
p1608
aS'72\r\n'
p1609
aa(lp1610
S'-3'
p1611
ag26
aS'-572'
p1612
aS'73\r\n'
p1613
aa(lp1614
g26
ag26
aS'-568'
p1615
aS'74\r\n'
p1616
aa(lp1617
g26
ag105
aS'-563'
p1618
aS'72\r\n'
p1619
aa(lp1620
S'-7'
p1621
ag11
aS'-560'
p1622
aS'73\r\n'
p1623
aa(lp1624
S'-9'
p1625
ag11
aS'-555'
p1626
aS'72\r\n'
p1627
aa(lp1628
S'-9'
p1629
ag372
aS'-556'
p1630
aS'74\r\n'
p1631
aa(lp1632
S'-10'
p1633
aS'11'
p1634
aS'-549'
p1635
aS'75\r\n'
p1636
aa(lp1637
S'-6'
p1638
ag16
aS'-556'
p1639
aS'74\r\n'
p1640
aa(lp1641
S'-6'
p1642
ag372
aS'-559'
p1643
aS'74\r\n'
p1644
aa(lp1645
S'-6'
p1646
ag153
aS'-558'
p1647
aS'74\r\n'
p1648
aa(lp1649
S'-3'
p1650
aS'-4'
p1651
aS'-566'
p1652
aS'75\r\n'
p1653
aa(lp1654
g11
aS'-15'
p1655
aS'-564'
p1656
aS'73\r\n'
p1657
aa(lp1658
g153
aS'-19'
p1659
aS'-560'
p1660
aS'75\r\n'
p1661
aa(lp1662
g153
aS'-18'
p1663
aS'-560'
p1664
aS'73\r\n'
p1665
aa(lp1666
g26
aS'-11'
p1667
aS'-563'
p1668
aS'73\r\n'
p1669
aa(lp1670
S'-4'
p1671
ag11
aS'-563'
p1672
aS'76\r\n'
p1673
aa(lp1674
S'-2'
p1675
aS'13'
p1676
aS'-574'
p1677
aS'72\r\n'
p1678
aa(lp1679
S'-7'
p1680
aS'14'
p1681
aS'-577'
p1682
aS'76\r\n'
p1683
aa(lp1684
S'-8'
p1685
aS'17'
p1686
aS'-572'
p1687
aS'72\r\n'
p1688
aa(lp1689
S'-8'
p1690
aS'15'
p1691
aS'-567'
p1692
aS'71\r\n'
p1693
aa(lp1694
S'-6'
p1695
ag100
aS'-565'
p1696
aS'71\r\n'
p1697
aa(lp1698
S'-1'
p1699
aS'-6'
p1700
aS'-555'
p1701
aS'74\r\n'
p1702
aa(lp1703
g32
aS'-15'
p1704
aS'-561'
p1705
aS'76\r\n'
p1706
aa(lp1707
g21
aS'-20'
p1708
aS'-565'
p1709
aS'74\r\n'
p1710
aa(lp1711
S'14'
p1712
aS'-17'
p1713
aS'-568'
p1714
aS'75\r\n'
p1715
aa(lp1716
g16
aS'-12'
p1717
aS'-566'
p1718
aS'73\r\n'
p1719
aa(lp1720
g16
ag26
aS'-574'
p1721
aS'76\r\n'
p1722
aa(lp1723
g11
ag100
aS'-573'
p1724
aS'72\r\n'
p1725
aa(lp1726
g26
aS'14'
p1727
aS'-569'
p1728
aS'75\r\n'
p1729
aa(lp1730
S'-5'
p1731
aS'20'
p1732
aS'-567'
p1733
aS'73\r\n'
p1734
aa(lp1735
S'-2'
p1736
aS'18'
p1737
aS'-570'
p1738
aS'72\r\n'
p1739
aa(lp1740
S'-3'
p1741
aS'20'
p1742
aS'-574'
p1743
aS'75\r\n'
p1744
aa(lp1745
S'-4'
p1746
aS'14'
p1747
aS'-571'
p1748
aS'72\r\n'
p1749
aa(lp1750
S'-3'
p1751
ag372
aS'-574'
p1752
aS'75\r\n'
p1753
aa(lp1754
S'-2'
p1755
aS'-1'
p1756
aS'-567'
p1757
aS'72\r\n'
p1758
aa(lp1759
g26
aS'-12'
p1760
aS'-569'
p1761
aS'71\r\n'
p1762
aa(lp1763
g7
aS'-12'
p1764
aS'-567'
p1765
aS'74\r\n'
p1766
aa(lp1767
g32
aS'-14'
p1768
aS'-558'
p1769
aS'76\r\n'
p1770
aa(lp1771
g7
aS'-11'
p1772
aS'-562'
p1773
aS'71\r\n'
p1774
aa(lp1775
g26
aS'-3'
p1776
aS'-565'
p1777
aS'73\r\n'
p1778
aa(lp1779
g26
ag11
aS'-562'
p1780
aS'72\r\n'
p1781
aa(lp1782
g26
ag26
aS'-566'
p1783
aS'76\r\n'
p1784
aa(lp1785
g11
ag26
aS'-560'
p1786
aS'75\r\n'
p1787
aa(lp1788
g7
ag372
aS'-559'
p1789
aS'74\r\n'
p1790
aa(lp1791
g32
ag105
aS'-562'
p1792
aS'72\r\n'
p1793
aa(lp1794
g26
aS'-3'
p1795
aS'-564'
p1796
aS'74\r\n'
p1797
aa(lp1798
g153
ag7
aS'-558'
p1799
aS'71\r\n'
p1800
aa(lp1801
g7
aS'-1'
p1802
aS'-559'
p1803
aS'71\r\n'
p1804
aa(lp1805
S'-2'
p1806
ag7
aS'-566'
p1807
aS'74\r\n'
p1808
aa(lp1809
S'-4'
p1810
aS'-1'
p1811
aS'-560'
p1812
aS'76\r\n'
p1813
aa(lp1814
S'-6'
p1815
ag7
aS'-558'
p1816
aS'72\r\n'
p1817
aa(lp1818
S'-8'
p1819
ag153
aS'-550'
p1820
aS'71\r\n'
p1821
aa(lp1822
S'-11'
p1823
ag32
aS'-559'
p1824
aS'76\r\n'
p1825
aa(lp1826
S'-9'
p1827
ag105
aS'-558'
p1828
aS'73\r\n'
p1829
aa(lp1830
S'-10'
p1831
ag16
aS'-556'
p1832
aS'76\r\n'
p1833
aa(lp1834
S'-12'
p1835
ag11
aS'-559'
p1836
aS'73\r\n'
p1837
aa(lp1838
S'-6'
p1839
ag26
aS'-559'
p1840
aS'71\r\n'
p1841
aa(lp1842
g26
aS'-5'
p1843
aS'-562'
p1844
aS'71\r\n'
p1845
aa(lp1846
g26
aS'-5'
p1847
aS'-566'
p1848
aS'75\r\n'
p1849
aa(lp1850
S'-3'
p1851
aS'-5'
p1852
aS'-561'
p1853
aS'71\r\n'
p1854
aa(lp1855
S'-5'
p1856
aS'-1'
p1857
aS'-563'
p1858
aS'71\r\n'
p1859
aa(lp1860
S'-12'
p1861
ag32
aS'-566'
p1862
aS'72\r\n'
p1863
aa(lp1864
S'-13'
p1865
ag100
aS'-573'
p1866
aS'73\r\n'
p1867
aa(lp1868
S'-11'
p1869
ag372
aS'-575'
p1870
aS'73\r\n'
p1871
aa(lp1872
S'-12'
p1873
ag32
aS'-580'
p1874
aS'74\r\n'
p1875
aa(lp1876
S'-4'
p1877
ag100
aS'-576'
p1878
aS'74\r\n'
p1879
aa(lp1880
g26
ag7
aS'-568'
p1881
aS'74\r\n'
p1882
aa(lp1883
g11
ag7
aS'-569'
p1884
aS'74\r\n'
p1885
aa(lp1886
g7
aS'-2'
p1887
aS'-569'
p1888
aS'76\r\n'
p1889
aa(lp1890
g26
ag11
aS'-568'
p1891
aS'75\r\n'
p1892
aa(lp1893
S'-2'
p1894
ag11
aS'-566'
p1895
aS'75\r\n'
p1896
aa(lp1897
S'-4'
p1898
aS'-1'
p1899
aS'-569'
p1900
aS'74\r\n'
p1901
aa(lp1902
S'-5'
p1903
ag7
aS'-570'
p1904
aS'76\r\n'
p1905
aa(lp1906
S'-3'
p1907
ag153
aS'-564'
p1908
aS'74\r\n'
p1909
aa(lp1910
S'-6'
p1911
ag16
aS'-561'
p1912
aS'73\r\n'
p1913
aa(lp1914
S'-3'
p1915
ag100
aS'-568'
p1916
aS'72\r\n'
p1917
aa(lp1918
S'-7'
p1919
ag16
aS'-575'
p1920
aS'74\r\n'
p1921
aa(lp1922
S'-5'
p1923
ag100
aS'-575'
p1924
aS'76\r\n'
p1925
aa(lp1926
g26
ag26
aS'-561'
p1927
aS'74\r\n'
p1928
aa(lp1929
g153
ag26
aS'-556'
p1930
aS'72\r\n'
p1931
aa(lp1932
g26
ag26
aS'-562'
p1933
aS'75\r\n'
p1934
aa(lp1935
g26
aS'-2'
p1936
aS'-568'
p1937
aS'76\r\n'
p1938
aa(lp1939
S'-4'
p1940
aS'-5'
p1941
aS'-559'
p1942
aS'74\r\n'
p1943
aa(lp1944
S'-3'
p1945
aS'-3'
p1946
aS'-558'
p1947
aS'73\r\n'
p1948
aa(lp1949
S'-2'
p1950
aS'-5'
p1951
aS'-558'
p1952
aS'71\r\n'
p1953
aa(lp1954
S'-3'
p1955
aS'-1'
p1956
aS'-562'
p1957
aS'71\r\n'
p1958
aa(lp1959
S'-7'
p1960
ag153
aS'-555'
p1961
aS'71\r\n'
p1962
aa(lp1963
S'-1'
p1964
ag153
aS'-552'
p1965
aS'75\r\n'
p1966
aa(lp1967
g7
ag26
aS'-555'
p1968
aS'74\r\n'
p1969
aa(lp1970
g7
ag11
aS'-553'
p1971
aS'74\r\n'
p1972
aa(lp1973
S'-2'
p1974
ag7
aS'-554'
p1975
aS'72\r\n'
p1976
aa(lp1977
S'-2'
p1978
ag26
aS'-555'
p1979
aS'73\r\n'
p1980
aa(lp1981
S'-2'
p1982
aS'-7'
p1983
aS'-556'
p1984
aS'71\r\n'
p1985
aa(lp1986
S'-3'
p1987
aS'-3'
p1988
aS'-555'
p1989
aS'75\r\n'
p1990
aa(lp1991
S'-2'
p1992
aS'-1'
p1993
aS'-552'
p1994
aS'76\r\n'
p1995
aa(lp1996
S'-5'
p1997
ag7
aS'-555'
p1998
aS'72\r\n'
p1999
aa(lp2000
S'-4'
p2001
aS'-1'
p2002
aS'-567'
p2003
aS'73\r\n'
p2004
aa(lp2005
S'-2'
p2006
aS'-3'
p2007
aS'-566'
p2008
aS'76\r\n'
p2009
aa(lp2010
g26
aS'-2'
p2011
aS'-569'
p2012
aS'71\r\n'
p2013
aa(lp2014
S'-3'
p2015
ag26
aS'-571'
p2016
aS'76\r\n'
p2017
aa(lp2018
S'-3'
p2019
ag26
aS'-574'
p2020
aS'76\r\n'
p2021
aa(lp2022
g7
ag153
aS'-567'
p2023
aS'71\r\n'
p2024
aa(lp2025
g26
ag32
aS'-565'
p2026
aS'75\r\n'
p2027
aa(lp2028
S'-1'
p2029
ag7
aS'-565'
p2030
aS'72\r\n'
p2031
aa(lp2032
S'-3'
p2033
aS'-3'
p2034
aS'-575'
p2035
aS'73\r\n'
p2036
aa(lp2037
S'-1'
p2038
aS'-7'
p2039
aS'-573'
p2040
aS'73\r\n'
p2041
aa(lp2042
S'-2'
p2043
aS'-7'
p2044
aS'-569'
p2045
aS'75\r\n'
p2046
aa(lp2047
S'-5'
p2048
aS'-5'
p2049
aS'-566'
p2050
aS'71\r\n'
p2051
aa(lp2052
S'-7'
p2053
aS'-3'
p2054
aS'-562'
p2055
aS'72\r\n'
p2056
aa(lp2057
S'-1'
p2058
aS'-4'
p2059
aS'-564'
p2060
aS'71\r\n'
p2061
aa(lp2062
g100
aS'-6'
p2063
aS'-564'
p2064
aS'71\r\n'
p2065
aa(lp2066
g7
ag26
aS'-565'
p2067
aS'71\r\n'
p2068
aa(lp2069
g26
ag100
aS'-565'
p2070
aS'73\r\n'
p2071
aa(lp2072
S'-1'
p2073
ag100
aS'-557'
p2074
aS'76\r\n'
p2075
aa(lp2076
S'-4'
p2077
ag16
aS'-553'
p2078
aS'76\r\n'
p2079
aa(lp2080
S'-2'
p2081
aS'15'
p2082
aS'-557'
p2083
aS'72\r\n'
p2084
aa(lp2085
g26
aS'10'
p2086
aS'-559'
p2087
aS'73\r\n'
p2088
aa(lp2089
S'-2'
p2090
ag7
aS'-562'
p2091
aS'73\r\n'
p2092
aa(lp2093
g26
aS'-2'
p2094
aS'-567'
p2095
aS'73\r\n'
p2096
aa(lp2097
g7
ag26
aS'-568'
p2098
aS'71\r\n'
p2099
aa(lp2100
g26
ag153
aS'-561'
p2101
aS'71\r\n'
p2102
aa(lp2103
g26
ag153
aS'-562'
p2104
aS'73\r\n'
p2105
aa(lp2106
S'-2'
p2107
aS'-1'
p2108
aS'-567'
p2109
aS'73\r\n'
p2110
aa(lp2111
S'-4'
p2112
aS'-1'
p2113
aS'-562'
p2114
aS'72\r\n'
p2115
aa(lp2116
g32
aS'-6'
p2117
aS'-560'
p2118
aS'76\r\n'
p2119
aa(lp2120
g16
aS'-1'
p2121
aS'-565'
p2122
aS'76\r\n'
p2123
aa(lp2124
g7
ag11
aS'-559'
p2125
aS'72\r\n'
p2126
aa(lp2127
g26
ag32
aS'-566'
p2128
aS'74\r\n'
p2129
aa(lp2130
S'-1'
p2131
ag26
aS'-552'
p2132
aS'74\r\n'
p2133
aa(lp2134
g26
ag32
aS'-556'
p2135
aS'73\r\n'
p2136
aa(lp2137
g7
ag153
aS'-558'
p2138
aS'71\r\n'
p2139
aa(lp2140
g153
ag153
aS'-560'
p2141
aS'73\r\n'
p2142
aa(lp2143
g26
ag372
aS'-572'
p2144
aS'71\r\n'
p2145
aa(lp2146
g153
ag153
aS'-573'
p2147
aS'74\r\n'
p2148
aa(lp2149
g153
ag26
aS'-566'
p2150
aS'75\r\n'
p2151
aa(lp2152
g105
aS'-2'
p2153
aS'-565'
p2154
aS'75\r\n'
p2155
aa(lp2156
S'-2'
p2157
aS'-2'
p2158
aS'-566'
p2159
aS'73\r\n'
p2160
aa(lp2161
S'-3'
p2162
aS'-2'
p2163
aS'-569'
p2164
aS'74\r\n'
p2165
aa(lp2166
S'-1'
p2167
ag26
aS'-572'
p2168
aS'75\r\n'
p2169
aa(lp2170
S'-3'
p2171
ag26
aS'-566'
p2172
aS'73\r\n'
p2173
aa(lp2174
g26
ag11
aS'-564'
p2175
aS'72\r\n'
p2176
aa(lp2177
g26
ag11
aS'-570'
p2178
aS'71\r\n'
p2179
aa(lp2180
S'-1'
p2181
ag11
aS'-567'
p2182
aS'72\r\n'
p2183
aa(lp2184
S'-2'
p2185
ag11
aS'-563'
p2186
aS'73\r\n'
p2187
aa(lp2188
S'-2'
p2189
aS'-2'
p2190
aS'-561'
p2191
aS'75\r\n'
p2192
aa(lp2193
S'-3'
p2194
ag26
aS'-568'
p2195
aS'72\r\n'
p2196
aa(lp2197
S'-3'
p2198
aS'-5'
p2199
aS'-562'
p2200
aS'75\r\n'
p2201
aa(lp2202
g26
aS'-5'
p2203
aS'-561'
p2204
aS'75\r\n'
p2205
aa(lp2206
g7
ag7
aS'-561'
p2207
aS'71\r\n'
p2208
aa(lp2209
g153
aS'-2'
p2210
aS'-561'
p2211
aS'72\r\n'
p2212
aa(lp2213
g11
aS'-2'
p2214
aS'-564'
p2215
aS'73\r\n'
p2216
aa(lp2217
g11
aS'-2'
p2218
aS'-570'
p2219
aS'71\r\n'
p2220
aa(lp2221
g26
ag26
aS'-572'
p2222
aS'74\r\n'
p2223
aa(lp2224
S'-4'
p2225
ag26
aS'-574'
p2226
aS'73\r\n'
p2227
aa(lp2228
S'-2'
p2229
ag7
aS'-571'
p2230
aS'76\r\n'
p2231
aa(lp2232
S'-1'
p2233
ag16
aS'-565'
p2234
aS'72\r\n'
p2235
aa(lp2236
S'-1'
p2237
ag32
aS'-563'
p2238
aS'74\r\n'
p2239
aa(lp2240
S'-4'
p2241
ag26
aS'-562'
p2242
aS'74\r\n'
p2243
aa(lp2244
S'-1'
p2245
ag7
aS'-555'
p2246
aS'72\r\n'
p2247
aa(lp2248
S'-2'
p2249
ag100
aS'-556'
p2250
aS'75\r\n'
p2251
aa(lp2252
S'-4'
p2253
ag32
aS'-560'
p2254
aS'74\r\n'
p2255
aa(lp2256
S'-5'
p2257
ag32
aS'-557'
p2258
aS'71\r\n'
p2259
aa(lp2260
S'-5'
p2261
ag11
aS'-562'
p2262
aS'71\r\n'
p2263
aa(lp2264
S'-2'
p2265
ag26
aS'-564'
p2266
aS'76\r\n'
p2267
aa(lp2268
S'-2'
p2269
aS'-4'
p2270
aS'-565'
p2271
aS'71\r\n'
p2272
aa(lp2273
S'-1'
p2274
aS'-4'
p2275
aS'-569'
p2276
aS'75\r\n'
p2277
aa(lp2278
S'-3'
p2279
aS'-1'
p2280
aS'-563'
p2281
aS'75\r\n'
p2282
aa(lp2283
S'-4'
p2284
ag26
aS'-565'
p2285
aS'75\r\n'
p2286
aa(lp2287
g26
ag11
aS'-571'
p2288
aS'72\r\n'
p2289
aa(lp2290
S'-5'
p2291
ag153
aS'-562'
p2292
aS'72\r\n'
p2293
aa(lp2294
S'-5'
p2295
ag105
aS'-560'
p2296
aS'73\r\n'
p2297
aa(lp2298
S'-3'
p2299
aS'11'
p2300
aS'-558'
p2301
aS'76\r\n'
p2302
aa(lp2303
S'-7'
p2304
ag372
aS'-554'
p2305
aS'73\r\n'
p2306
aa(lp2307
S'-6'
p2308
ag16
aS'-561'
p2309
aS'72\r\n'
p2310
aa(lp2311
S'-9'
p2312
ag32
aS'-555'
p2313
aS'76\r\n'
p2314
aa(lp2315
S'-7'
p2316
ag372
aS'-563'
p2317
aS'73\r\n'
p2318
aa(lp2319
S'-2'
p2320
ag32
aS'-565'
p2321
aS'74\r\n'
p2322
aa(lp2323
g7
aS'-1'
p2324
aS'-559'
p2325
aS'75\r\n'
p2326
aa(lp2327
g26
ag11
aS'-565'
p2328
aS'73\r\n'
p2329
aa(lp2330
S'-1'
p2331
ag32
aS'-565'
p2332
aS'72\r\n'
p2333
aa(lp2334
S'-1'
p2335
ag11
aS'-561'
p2336
aS'72\r\n'
p2337
aa(lp2338
S'-3'
p2339
ag7
aS'-560'
p2340
aS'76\r\n'
p2341
aa(lp2342
S'-6'
p2343
ag16
aS'-563'
p2344
aS'75\r\n'
p2345
aa(lp2346
S'-8'
p2347
ag105
aS'-557'
p2348
aS'75\r\n'
p2349
aa(lp2350
S'-7'
p2351
ag16
aS'-559'
p2352
aS'73\r\n'
p2353
aa(lp2354
S'-2'
p2355
aS'11'
p2356
aS'-567'
p2357
aS'75\r\n'
p2358
aa(lp2359
S'-4'
p2360
ag105
aS'-561'
p2361
aS'75\r\n'
p2362
aa(lp2363
S'-2'
p2364
ag153
aS'-563'
p2365
aS'76\r\n'
p2366
aa(lp2367
g26
ag26
aS'-565'
p2368
aS'72\r\n'
p2369
aa(lp2370
g11
ag100
aS'-560'
p2371
aS'73\r\n'
p2372
aa(lp2373
S'-1'
p2374
ag100
aS'-556'
p2375
aS'75\r\n'
p2376
aa(lp2377
g153
ag26
aS'-563'
p2378
aS'73\r\n'
p2379
aa(lp2380
g16
aS'-9'
p2381
aS'-568'
p2382
aS'71\r\n'
p2383
aa(lp2384
S'16'
p2385
aS'-26'
p2386
aS'-566'
p2387
aS'73\r\n'
p2388
aa(lp2389
S'14'
p2390
aS'-35'
p2391
aS'-570'
p2392
aS'76\r\n'
p2393
aa(lp2394
S'10'
p2395
aS'-35'
p2396
aS'-572'
p2397
aS'73\r\n'
p2398
aa(lp2399
g100
aS'-21'
p2400
aS'-574'
p2401
aS'71\r\n'
p2402
aa(lp2403
S'-1'
p2404
aS'-6'
p2405
aS'-575'
p2406
aS'74\r\n'
p2407
aa(lp2408
S'-7'
p2409
ag372
aS'-580'
p2410
aS'74\r\n'
p2411
aa(lp2412
S'-13'
p2413
aS'27'
p2414
aS'-564'
p2415
aS'71\r\n'
p2416
aa(lp2417
S'-17'
p2418
aS'46'
p2419
aS'-564'
p2420
aS'74\r\n'
p2421
aa(lp2422
S'-16'
p2423
aS'44'
p2424
aS'-568'
p2425
aS'71\r\n'
p2426
aa(lp2427
S'-11'
p2428
aS'37'
p2429
aS'-562'
p2430
aS'72\r\n'
p2431
aa(lp2432
S'-8'
p2433
aS'20'
p2434
aS'-560'
p2435
aS'75\r\n'
p2436
aa(lp2437
S'-3'
p2438
aS'-1'
p2439
aS'-557'
p2440
aS'72\r\n'
p2441
aa(lp2442
g7
aS'-18'
p2443
aS'-562'
p2444
aS'71\r\n'
p2445
aa(lp2446
g100
aS'-27'
p2447
aS'-560'
p2448
aS'72\r\n'
p2449
aa(lp2450
g105
aS'-26'
p2451
aS'-559'
p2452
aS'76\r\n'
p2453
aa(lp2454
g11
aS'-13'
p2455
aS'-570'
p2456
aS'71\r\n'
p2457
aa(lp2458
S'-5'
p2459
aS'-2'
p2460
aS'-561'
p2461
aS'76\r\n'
p2462
aa(lp2463
S'-8'
p2464
ag372
aS'-565'
p2465
aS'75\r\n'
p2466
aa(lp2467
S'-11'
p2468
aS'25'
p2469
aS'-567'
p2470
aS'72\r\n'
p2471
aa(lp2472
S'-12'
p2473
aS'25'
p2474
aS'-568'
p2475
aS'73\r\n'
p2476
aa(lp2477
S'-11'
p2478
aS'24'
p2479
aS'-564'
p2480
aS'72\r\n'
p2481
aa(lp2482
S'-9'
p2483
aS'16'
p2484
aS'-556'
p2485
aS'75\r\n'
p2486
aa(lp2487
S'-3'
p2488
ag105
aS'-561'
p2489
aS'74\r\n'
p2490
aa(lp2491
g26
ag7
aS'-561'
p2492
aS'72\r\n'
p2493
aa(lp2494
g26
aS'-1'
p2495
aS'-561'
p2496
aS'71\r\n'
p2497
aa(lp2498
g26
aS'-9'
p2499
aS'-569'
p2500
aS'75\r\n'
p2501
aa(lp2502
g7
aS'-11'
p2503
aS'-572'
p2504
aS'74\r\n'
p2505
aa(lp2506
g153
aS'-6'
p2507
aS'-563'
p2508
aS'75\r\n'
p2509
aa(lp2510
g26
aS'-4'
p2511
aS'-562'
p2512
aS'74\r\n'
p2513
aa(lp2514
g26
ag26
aS'-565'
p2515
aS'75\r\n'
p2516
aa(lp2517
S'-2'
p2518
ag105
aS'-566'
p2519
aS'73\r\n'
p2520
aa(lp2521
g7
ag372
aS'-563'
p2522
aS'76\r\n'
p2523
aa(lp2524
g11
aS'10'
p2525
aS'-563'
p2526
aS'76\r\n'
p2527
aa(lp2528
g153
aS'12'
p2529
aS'-567'
p2530
aS'76\r\n'
p2531
aa(lp2532
g105
aS'14'
p2533
aS'-563'
p2534
aS'72\r\n'
p2535
aa(lp2536
g32
ag372
aS'-562'
p2537
aS'74\r\n'
p2538
aa(lp2539
g32
aS'-3'
p2540
aS'-557'
p2541
aS'71\r\n'
p2542
aa(lp2543
g100
aS'-11'
p2544
aS'-560'
p2545
aS'73\r\n'
p2546
aa(lp2547
S'-1'
p2548
aS'-10'
p2549
aS'-567'
p2550
aS'74\r\n'
p2551
aa(lp2552
S'-1'
p2553
aS'-3'
p2554
aS'-556'
p2555
aS'75\r\n'
p2556
aa(lp2557
S'-1'
p2558
ag11
aS'-561'
p2559
aS'72\r\n'
p2560
aa(lp2561
S'-6'
p2562
aS'10'
p2563
aS'-562'
p2564
aS'72\r\n'
p2565
aa(lp2566
S'-10'
p2567
aS'17'
p2568
aS'-551'
p2569
aS'74\r\n'
p2570
aa(lp2571
S'-11'
p2572
aS'30'
p2573
aS'-558'
p2574
aS'73\r\n'
p2575
aa(lp2576
S'-11'
p2577
aS'26'
p2578
aS'-549'
p2579
aS'72\r\n'
p2580
aa(lp2581
S'-8'
p2582
aS'22'
p2583
aS'-543'
p2584
aS'72\r\n'
p2585
aa(lp2586
S'-4'
p2587
ag16
aS'-541'
p2588
aS'72\r\n'
p2589
aa(lp2590
g26
aS'-7'
p2591
aS'-540'
p2592
aS'71\r\n'
p2593
aa(lp2594
g32
aS'-23'
p2595
aS'-546'
p2596
aS'74\r\n'
p2597
aa(lp2598
g32
aS'-22'
p2599
aS'-558'
p2600
aS'72\r\n'
p2601
aa(lp2602
g16
aS'-17'
p2603
aS'-550'
p2604
aS'71\r\n'
p2605
aa(lp2606
g26
ag26
aS'-550'
p2607
aS'75\r\n'
p2608
aa(lp2609
S'-4'
p2610
aS'11'
p2611
aS'-559'
p2612
aS'72\r\n'
p2613
aa(lp2614
S'-6'
p2615
aS'20'
p2616
aS'-565'
p2617
aS'72\r\n'
p2618
aa(lp2619
S'-8'
p2620
aS'29'
p2621
aS'-566'
p2622
aS'76\r\n'
p2623
aa(lp2624
S'-7'
p2625
aS'28'
p2626
aS'-564'
p2627
aS'73\r\n'
p2628
aa(lp2629
S'-3'
p2630
aS'21'
p2631
aS'-563'
p2632
aS'71\r\n'
p2633
aa(lp2634
g153
ag372
aS'-577'
p2635
aS'73\r\n'
p2636
aa(lp2637
g32
aS'-9'
p2638
aS'-577'
p2639
aS'73\r\n'
p2640
aa(lp2641
g100
aS'-17'
p2642
aS'-566'
p2643
aS'73\r\n'
p2644
aa(lp2645
g372
aS'-19'
p2646
aS'-563'
p2647
aS'75\r\n'
p2648
aa(lp2649
S'11'
p2650
aS'-9'
p2651
aS'-558'
p2652
aS'75\r\n'
p2653
aa(lp2654
g32
aS'-1'
p2655
aS'-559'
p2656
aS'75\r\n'
p2657
aa(lp2658
S'-1'
p2659
ag372
aS'-570'
p2660
aS'76\r\n'
p2661
aa(lp2662
S'-3'
p2663
aS'11'
p2664
aS'-570'
p2665
aS'71\r\n'
p2666
aa(lp2667
S'-6'
p2668
aS'20'
p2669
aS'-565'
p2670
aS'74\r\n'
p2671
aa(lp2672
S'-8'
p2673
aS'16'
p2674
aS'-563'
p2675
aS'75\r\n'
p2676
aa(lp2677
S'-3'
p2678
aS'14'
p2679
aS'-572'
p2680
aS'75\r\n'
p2681
aa(lp2682
g26
ag100
aS'-550'
p2683
aS'73\r\n'
p2684
aa(lp2685
S'-1'
p2686
aS'-2'
p2687
aS'-577'
p2688
aS'76\r\n'
p2689
aa(lp2690
g26
aS'-12'
p2691
aS'-570'
p2692
aS'72\r\n'
p2693
aa(lp2694
g11
aS'-20'
p2695
aS'-580'
p2696
aS'71\r\n'
p2697
aa(lp2698
g7
aS'-10'
p2699
aS'-572'
p2700
aS'75\r\n'
p2701
aa(lp2702
S'-1'
p2703
aS'-4'
p2704
aS'-562'
p2705
aS'76\r\n'
p2706
aa(lp2707
g26
ag11
aS'-571'
p2708
aS'76\r\n'
p2709
aa(lp2710
g26
ag7
aS'-566'
p2711
aS'73\r\n'
p2712
aa(lp2713
g26
ag7
aS'-574'
p2714
aS'74\r\n'
p2715
aa(lp2716
S'-1'
p2717
ag100
aS'-577'
p2718
aS'72\r\n'
p2719
aa(lp2720
S'-2'
p2721
ag372
aS'-578'
p2722
aS'75\r\n'
p2723
aa(lp2724
g26
ag153
aS'-568'
p2725
aS'74\r\n'
p2726
aa(lp2727
g100
ag11
aS'-567'
p2728
aS'76\r\n'
p2729
aa(lp2730
S'19'
p2731
aS'150'
p2732
aS'-556'
p2733
aS'72\r\n'
p2734
aa(lp2735
S'56'
p2736
aS'147'
p2737
aS'-550'
p2738
aS'75\r\n'
p2739
aa(lp2740
S'-41'
p2741
aS'-200'
p2742
aS'-560'
p2743
aS'76\r\n'
p2744
aa(lp2745
S'-80'
p2746
aS'-807'
p2747
aS'-539'
p2748
aS'74\r\n'
p2749
aa(lp2750
S'-998'
p2751
aS'-987'
p2752
aS'-613'
p2753
aS'72\r\n'
p2754
aa(lp2755
S'-1967'
p2756
aS'-404'
p2757
aS'-601'
p2758
aS'71\r\n'
p2759
aa(lp2760
S'-1568'
p2761
aS'-100'
p2762
aS'-594'
p2763
aS'75\r\n'
p2764
aa(lp2765
S'-307'
p2766
aS'-61'
p2767
aS'-603'
p2768
aS'73\r\n'
p2769
aa(lp2770
S'675'
p2771
aS'71'
p2772
aS'-562'
p2773
aS'74\r\n'
p2774
aa(lp2775
S'1645'
p2776
aS'600'
p2777
aS'-509'
p2778
aS'72\r\n'
p2779
aa(lp2780
S'1939'
p2781
aS'1269'
p2782
aS'-516'
p2783
aS'75\r\n'
p2784
aa(lp2785
S'2595'
p2786
aS'1512'
p2787
aS'-448'
p2788
aS'71\r\n'
p2789
aa(lp2790
S'2846'
p2791
aS'651'
p2792
aS'-420'
p2793
aS'73\r\n'
p2794
aa(lp2795
S'2636'
p2796
aS'-207'
p2797
aS'-444'
p2798
aS'74\r\n'
p2799
aa(lp2800
S'965'
p2801
aS'-475'
p2802
aS'-535'
p2803
aS'74\r\n'
p2804
aa(lp2805
S'-1112'
p2806
aS'-531'
p2807
aS'-622'
p2808
aS'76\r\n'
p2809
aa(lp2810
S'-2833'
p2811
aS'-452'
p2812
aS'-628'
p2813
aS'73\r\n'
p2814
aa(lp2815
S'-3271'
p2816
aS'-719'
p2817
aS'-632'
p2818
aS'73\r\n'
p2819
aa(lp2820
S'-3949'
p2821
aS'-843'
p2822
aS'-616'
p2823
aS'75\r\n'
p2824
aa(lp2825
S'-3480'
p2826
aS'-833'
p2827
aS'-611'
p2828
aS'71\r\n'
p2829
aa(lp2830
S'-1534'
p2831
aS'-882'
p2832
aS'-585'
p2833
aS'71\r\n'
p2834
aa(lp2835
S'604'
p2836
aS'-403'
p2837
aS'-488'
p2838
aS'75\r\n'
p2839
aa(lp2840
S'2453'
p2841
aS'449'
p2842
aS'-514'
p2843
aS'72\r\n'
p2844
aa(lp2845
S'2223'
p2846
aS'847'
p2847
aS'-532'
p2848
aS'71\r\n'
p2849
aa(lp2850
S'2251'
p2851
aS'931'
p2852
aS'-506'
p2853
aS'74\r\n'
p2854
aa(lp2855
S'2159'
p2856
aS'803'
p2857
aS'-447'
p2858
aS'72\r\n'
p2859
aa(lp2860
S'1481'
p2861
aS'301'
p2862
aS'-506'
p2863
aS'73\r\n'
p2864
aa(lp2865
S'342'
p2866
aS'18'
p2867
aS'-561'
p2868
aS'75\r\n'
p2869
aa(lp2870
S'-774'
p2871
aS'-117'
p2872
aS'-579'
p2873
aS'71\r\n'
p2874
aa(lp2875
S'-1129'
p2876
aS'-222'
p2877
aS'-585'
p2878
aS'76\r\n'
p2879
aa(lp2880
S'-806'
p2881
aS'-253'
p2882
aS'-573'
p2883
aS'74\r\n'
p2884
aa(lp2885
S'-501'
p2886
aS'-156'
p2887
aS'-559'
p2888
aS'71\r\n'
p2889
aa(lp2890
S'-289'
p2891
aS'-104'
p2892
aS'-559'
p2893
aS'75\r\n'
p2894
aa(lp2895
S'-179'
p2896
aS'-66'
p2897
aS'-563'
p2898
aS'73\r\n'
p2899
aa(lp2900
S'-107'
p2901
aS'-53'
p2902
aS'-569'
p2903
aS'76\r\n'
p2904
aa(lp2905
S'-65'
p2906
aS'-39'
p2907
aS'-559'
p2908
aS'73\r\n'
p2909
aa(lp2910
S'-40'
p2911
aS'-25'
p2912
aS'-569'
p2913
aS'72\r\n'
p2914
aa(lp2915
S'-29'
p2916
aS'-13'
p2917
aS'-558'
p2918
aS'72\r\n'
p2919
aa(lp2920
S'-22'
p2921
ag32
aS'-556'
p2922
aS'76\r\n'
p2923
aa(lp2924
S'-14'
p2925
aS'12'
p2926
aS'-550'
p2927
aS'74\r\n'
p2928
aa(lp2929
S'-12'
p2930
aS'16'
p2931
aS'-555'
p2932
aS'73\r\n'
p2933
aa(lp2934
S'-3'
p2935
aS'19'
p2936
aS'-558'
p2937
aS'72\r\n'
p2938
aa(lp2939
S'-5'
p2940
ag21
aS'-560'
p2941
aS'72\r\n'
p2942
aa(lp2943
g11
ag32
aS'-556'
p2944
aS'72\r\n'
p2945
aa(lp2946
g153
ag32
aS'-551'
p2947
aS'73\r\n'
p2948
aa(lp2949
g32
aS'-4'
p2950
aS'-563'
p2951
aS'73\r\n'
p2952
aa(lp2953
g153
aS'-3'
p2954
aS'-568'
p2955
aS'73\r\n'
p2956
aa(lp2957
g11
aS'-1'
p2958
aS'-564'
p2959
aS'75\r\n'
p2960
aa(lp2961
S'-1'
p2962
ag7
aS'-559'
p2963
aS'76\r\n'
p2964
aa(lp2965
g11
ag11
aS'-559'
p2966
aS'75\r\n'
p2967
aa(lp2968
g32
aS'12'
p2969
aS'-560'
p2970
aS'76\r\n'
p2971
aa(lp2972
g32
aS'26'
p2973
aS'-562'
p2974
aS'76\r\n'
p2975
aa(lp2976
g16
aS'25'
p2977
aS'-567'
p2978
aS'74\r\n'
p2979
aa(lp2980
S'14'
p2981
aS'42'
p2982
aS'-562'
p2983
aS'73\r\n'
p2984
aa(lp2985
S'13'
p2986
aS'25'
p2987
aS'-554'
p2988
aS'73\r\n'
p2989
aa(lp2990
g7
aS'-7'
p2991
aS'-563'
p2992
aS'72\r\n'
p2993
aa(lp2994
g153
aS'-3'
p2995
aS'-559'
p2996
aS'74\r\n'
p2997
aa(lp2998
S'17'
p2999
aS'26'
p3000
aS'-560'
p3001
aS'72\r\n'
p3002
aa(lp3003
S'26'
p3004
aS'33'
p3005
aS'-561'
p3006
aS'74\r\n'
p3007
aa(lp3008
S'33'
p3009
ag32
aS'-564'
p3010
aS'73\r\n'
p3011
aa(lp3012
S'62'
p3013
aS'28'
p3014
aS'-555'
p3015
aS'74\r\n'
p3016
aa(lp3017
S'63'
p3018
aS'58'
p3019
aS'-495'
p3020
aS'71\r\n'
p3021
aa(lp3022
S'37'
p3023
aS'20'
p3024
aS'-481'
p3025
aS'75\r\n'
p3026
aa(lp3027
S'42'
p3028
aS'66'
p3029
aS'-280'
p3030
aS'72\r\n'
p3031
aa(lp3032
S'160'
p3033
aS'236'
p3034
aS'76'
p3035
aS'73\r\n'
p3036
aa(lp3037
S'288'
p3038
aS'179'
p3039
aS'238'
p3040
aS'74\r\n'
p3041
aa(lp3042
S'435'
p3043
aS'227'
p3044
aS'170'
p3045
aS'71\r\n'
p3046
aa(lp3047
S'395'
p3048
aS'71'
p3049
aS'-115'
p3050
aS'72\r\n'
p3051
aa(lp3052
S'215'
p3053
aS'130'
p3054
aS'-153'
p3055
aS'73\r\n'
p3056
aa(lp3057
S'342'
p3058
aS'218'
p3059
aS'28'
p3060
aS'73\r\n'
p3061
aa(lp3062
S'607'
p3063
aS'344'
p3064
aS'-46'
p3065
aS'74\r\n'
p3066
aa(lp3067
S'481'
p3068
aS'150'
p3069
aS'-309'
p3070
aS'76\r\n'
p3071
aa(lp3072
S'233'
p3073
aS'-139'
p3074
aS'-201'
p3075
aS'75\r\n'
p3076
aa(lp3077
S'-47'
p3078
aS'65'
p3079
aS'63'
p3080
aS'75\r\n'
p3081
aa(lp3082
S'-94'
p3083
aS'256'
p3084
aS'338'
p3085
aS'71\r\n'
p3086
aa(lp3087
S'33'
p3088
aS'232'
p3089
aS'-26'
p3090
aS'75\r\n'
p3091
aa(lp3092
S'193'
p3093
aS'-18'
p3094
aS'-377'
p3095
aS'72\r\n'
p3096
aa(lp3097
S'188'
p3098
aS'-123'
p3099
aS'-566'
p3100
aS'71\r\n'
p3101
aa(lp3102
S'141'
p3103
aS'-260'
p3104
aS'-934'
p3105
aS'75\r\n'
p3106
aa(lp3107
S'31'
p3108
aS'-235'
p3109
aS'-1089'
p3110
aS'75\r\n'
p3111
aa(lp3112
S'-98'
p3113
aS'-312'
p3114
aS'-1376'
p3115
aS'75\r\n'
p3116
aa(lp3117
S'-337'
p3118
aS'-225'
p3119
aS'-1688'
p3120
aS'73\r\n'
p3121
aa(lp3122
S'-586'
p3123
aS'-123'
p3124
aS'-1952'
p3125
aS'75\r\n'
p3126
aa(lp3127
S'-702'
p3128
aS'-42'
p3129
aS'-2216'
p3130
aS'75\r\n'
p3131
aa(lp3132
S'-586'
p3133
aS'-46'
p3134
aS'-2559'
p3135
aS'73\r\n'
p3136
aa(lp3137
S'-623'
p3138
aS'-11'
p3139
aS'-2876'
p3140
aS'72\r\n'
p3141
aa(lp3142
S'-695'
p3143
aS'-15'
p3144
aS'-3138'
p3145
aS'74\r\n'
p3146
aa(lp3147
S'-722'
p3148
aS'-71'
p3149
aS'-3283'
p3150
aS'72\r\n'
p3151
aa(lp3152
S'-694'
p3153
aS'-104'
p3154
aS'-2866'
p3155
aS'75\r\n'
p3156
aa(lp3157
S'-461'
p3158
aS'-58'
p3159
aS'-2298'
p3160
aS'74\r\n'
p3161
aa(lp3162
S'-174'
p3163
aS'-113'
p3164
aS'-1981'
p3165
aS'75\r\n'
p3166
aa(lp3167
S'-222'
p3168
aS'-1338'
p3169
aS'-1827'
p3170
aS'75\r\n'
p3171
aa(lp3172
S'352'
p3173
aS'-593'
p3174
aS'160'
p3175
aS'74\r\n'
p3176
aa(lp3177
S'18'
p3178
aS'-639'
p3179
aS'1137'
p3180
aS'76\r\n'
p3181
aa(lp3182
S'-167'
p3183
aS'-580'
p3184
aS'1779'
p3185
aS'74\r\n'
p3186
aa(lp3187
S'-165'
p3188
aS'-345'
p3189
aS'2132'
p3190
aS'72\r\n'
p3191
aa(lp3192
S'-103'
p3193
aS'-232'
p3194
aS'1382'
p3195
aS'74\r\n'
p3196
aa(lp3197
S'32'
p3198
aS'-117'
p3199
aS'577'
p3200
aS'71\r\n'
p3201
aa(lp3202
S'237'
p3203
aS'128'
p3204
aS'273'
p3205
aS'75\r\n'
p3206
aa(lp3207
S'244'
p3208
aS'177'
p3209
aS'-35'
p3210
aS'73\r\n'
p3211
aa(lp3212
S'169'
p3213
aS'115'
p3214
aS'-220'
p3215
aS'72\r\n'
p3216
aa(lp3217
S'117'
p3218
aS'76'
p3219
aS'-352'
p3220
aS'72\r\n'
p3221
aa(lp3222
S'92'
p3223
aS'43'
p3224
aS'-434'
p3225
aS'71\r\n'
p3226
aa(lp3227
S'77'
p3228
aS'27'
p3229
aS'-479'
p3230
aS'74\r\n'
p3231
aa(lp3232
S'64'
p3233
aS'17'
p3234
aS'-514'
p3235
aS'75\r\n'
p3236
aa(lp3237
S'54'
p3238
ag21
aS'-525'
p3239
aS'73\r\n'
p3240
aa(lp3241
S'45'
p3242
ag100
aS'-534'
p3243
aS'73\r\n'
p3244
aa(lp3245
S'37'
p3246
aS'10'
p3247
aS'-545'
p3248
aS'74\r\n'
p3249
aa(lp3250
S'27'
p3251
aS'16'
p3252
aS'-543'
p3253
aS'72\r\n'
p3254
aa(lp3255
S'26'
p3256
aS'26'
p3257
aS'-549'
p3258
aS'76\r\n'
p3259
aa(lp3260
S'22'
p3261
aS'27'
p3262
aS'-551'
p3263
aS'75\r\n'
p3264
aa(lp3265
S'26'
p3266
aS'28'
p3267
aS'-553'
p3268
aS'76\r\n'
p3269
aa(lp3270
S'23'
p3271
aS'32'
p3272
aS'-558'
p3273
aS'74\r\n'
p3274
aa(lp3275
S'24'
p3276
aS'24'
p3277
aS'-552'
p3278
aS'76\r\n'
p3279
aa(lp3280
S'23'
p3281
aS'17'
p3282
aS'-549'
p3283
aS'73\r\n'
p3284
aa(lp3285
S'25'
p3286
ag21
aS'-559'
p3287
aS'74\r\n'
p3288
aa(lp3289
S'22'
p3290
ag372
aS'-560'
p3291
aS'73\r\n'
p3292
aa(lp3293
S'21'
p3294
ag100
aS'-560'
p3295
aS'73\r\n'
p3296
aa(lp3297
S'22'
p3298
aS'11'
p3299
aS'-551'
p3300
aS'73\r\n'
p3301
aa(lp3302
S'26'
p3303
aS'24'
p3304
aS'-551'
p3305
aS'74\r\n'
p3306
aa(lp3307
S'22'
p3308
aS'32'
p3309
aS'-557'
p3310
aS'71\r\n'
p3311
aa(lp3312
S'21'
p3313
aS'33'
p3314
aS'-564'
p3315
aS'73\r\n'
p3316
aa(lp3317
S'21'
p3318
aS'28'
p3319
aS'-567'
p3320
aS'72\r\n'
p3321
aa(lp3322
S'21'
p3323
aS'20'
p3324
aS'-557'
p3325
aS'75\r\n'
p3326
aa(lp3327
S'26'
p3328
aS'21'
p3329
aS'-555'
p3330
aS'72\r\n'
p3331
aa(lp3332
S'25'
p3333
aS'20'
p3334
aS'-560'
p3335
aS'75\r\n'
p3336
aa(lp3337
S'24'
p3338
aS'16'
p3339
aS'-557'
p3340
aS'71\r\n'
p3341
aa(lp3342
S'23'
p3343
aS'19'
p3344
aS'-558'
p3345
aS'76\r\n'
p3346
aa(lp3347
S'24'
p3348
aS'17'
p3349
aS'-551'
p3350
aS'74\r\n'
p3351
aa(lp3352
S'25'
p3353
aS'16'
p3354
aS'-553'
p3355
aS'75\r\n'
p3356
aa(lp3357
S'27'
p3358
aS'15'
p3359
aS'-548'
p3360
aS'75\r\n'
p3361
aa(lp3362
S'26'
p3363
aS'21'
p3364
aS'-553'
p3365
aS'72\r\n'
p3366
aa(lp3367
S'27'
p3368
aS'18'
p3369
aS'-558'
p3370
aS'73\r\n'
p3371
aa(lp3372
S'30'
p3373
aS'15'
p3374
aS'-557'
p3375
aS'76\r\n'
p3376
aa(lp3377
S'23'
p3378
aS'12'
p3379
aS'-560'
p3380
aS'76\r\n'
p3381
aa(lp3382
S'18'
p3383
aS'15'
p3384
aS'-550'
p3385
aS'76\r\n'
p3386
aa(lp3387
S'19'
p3388
aS'15'
p3389
aS'-550'
p3390
aS'76\r\n'
p3391
aa(lp3392
S'14'
p3393
aS'16'
p3394
aS'-555'
p3395
aS'72\r\n'
p3396
aa(lp3397
S'16'
p3398
aS'19'
p3399
aS'-562'
p3400
aS'73\r\n'
p3401
aa(lp3402
S'19'
p3403
aS'21'
p3404
aS'-568'
p3405
aS'74\r\n'
p3406
aa(lp3407
S'22'
p3408
aS'22'
p3409
aS'-562'
p3410
aS'73\r\n'
p3411
aa(lp3412
S'26'
p3413
aS'23'
p3414
aS'-560'
p3415
aS'73\r\n'
p3416
aa(lp3417
S'23'
p3418
aS'17'
p3419
aS'-558'
p3420
aS'74\r\n'
p3421
aa(lp3422
S'21'
p3423
aS'15'
p3424
aS'-555'
p3425
aS'76\r\n'
p3426
aa(lp3427
S'21'
p3428
aS'12'
p3429
aS'-565'
p3430
aS'71\r\n'
p3431
aa(lp3432
S'22'
p3433
aS'19'
p3434
aS'-562'
p3435
aS'76\r\n'
p3436
aa(lp3437
S'20'
p3438
aS'20'
p3439
aS'-572'
p3440
aS'73\r\n'
p3441
aa(lp3442
S'19'
p3443
aS'18'
p3444
aS'-562'
p3445
aS'72\r\n'
p3446
aa(lp3447
S'20'
p3448
aS'13'
p3449
aS'-559'
p3450
aS'74\r\n'
p3451
aa(lp3452
S'21'
p3453
ag100
aS'-568'
p3454
aS'71\r\n'
p3455
aa(lp3456
S'22'
p3457
ag26
aS'-565'
p3458
aS'73\r\n'
p3459
aa(lp3460
S'15'
p3461
ag26
aS'-569'
p3462
aS'76\r\n'
p3463
aa(lp3464
S''
p3465
aS'-561'
p3466
aS'71\r\n'
p3467
aa(lp3468
g105
aS'-3'
p3469
aS'-567'
p3470
aS'75\r\n'
p3471
aa(lp3472
g100
ag26
aS'-561'
p3473
aS'71\r\n'
p3474
aa(lp3475
g153
aS'13'
p3476
aS'-564'
p3477
aS'75\r\n'
p3478
aa(lp3479
S'-3'
p3480
aS'13'
p3481
aS'-569'
p3482
aS'75\r\n'
p3483
aa(lp3484
S'-3'
p3485
aS'12'
p3486
aS'-568'
p3487
aS'74\r\n'
p3488
aa(lp3489
S'-2'
p3490
ag26
aS'-566'
p3491
aS'73\r\n'
p3492
aa(lp3493
S'-4'
p3494
aS'-1'
p3495
aS'-566'
p3496
aS'71\r\n'
p3497
aa(lp3498
g7
aS'-5'
p3499
aS'-567'
p3500
aS'71\r\n'
p3501
aa(lp3502
g372
aS'-6'
p3503
aS'-561'
p3504
aS'71\r\n'
p3505
aa(lp3506
g105
aS'-3'
p3507
aS'-567'
p3508
aS'75\r\n'
p3509
aa(lp3510
g100
ag26
aS'-561'
p3511
aS'71\r\n'
p3512
aa(lp3513
g7
ag100
aS'-570'
p3514
aS'73\r\n'
p3515
aa(lp3516
S'\n'
p3517
aa(lp3518
S'-3'
p3519
aS'13'
p3520
aS'-569'
p3521
aS'75\r\n'
p3522
aa(lp3523
S'-3'
p3524
aS'12'
p3525
aS'-568'
p3526
aS'74\r\n'
p3527
aa(lp3528
S'-2'
p3529
ag26
aS'-566'
p3530
aS'73\r\n'
p3531
aa(lp3532
S'-4'
p3533
aS'-1'
p3534
aS'-566'
p3535
aS'71\r\n'
p3536
aa(lp3537
g7
aS'-5'
p3538
aS'-567'
p3539
aS'71\r\n'
p3540
aa(lp3541
g372
aS'-6'
p3542
aS'-561'
p3543
aS'71\r\n'
p3544
aa(lp3545
g105
aS'-3'
p3546
aS'-567'
p3547
aS'75\r\n'
p3548
aa(lp3549
g100
ag26
aS'-561'
p3550
aS'71\r\n'
p3551
aa(lp3552
g7
ag100
aS'-570'
p3553
aS'73\r\n'
p3554
aa(lp3555
g7
aS'14'
p3556
aS'-568'
p3557
aS'73\r\n'
p3558
aa(lp3559
g11
aS'17'
p3560
aS'-566'
p3561
aS'75\r\n'
p3562
aa(lp3563
g7
aS'15'
p3564
aS'-562'
p3565
aS'73\r\n'
p3566
aa(lp3567
g26
ag21
aS'-563'
p3568
aS'74\r\n'
p3569
aa(lp3570
S'-2'
p3571
ag32
aS'-559'
p3572
aS'73\r\n'
p3573
aa(lp3574
S'-1'
p3575
ag100
aS'-559'
p3576
aS'74\r\n'
p3577
aa(lp3578
g11
ag372
aS'-559'
p3579
aS'73\r\n'
p3580
aa(lp3581
g26
ag26
aS'-564'
p3582
aS'75\r\n'
p3583
aa(lp3584
g153
ag7
aS'-556'
p3585
aS'76\r\n'
p3586
aa(lp3587
g21
ag372
aS'-559'
p3588
aS'73\r\n'
p3589
aa(lp3590
g32
aS'12'
p3591
aS'-566'
p3592
aS'73\r\n'
p3593
aa(lp3594
g7
ag21
aS'-564'
p3595
aS'71\r\n'
p3596
aa(lp3597
g26
ag372
aS'-561'
p3598
aS'75\r\n'
p3599
aa(lp3600
S'-5'
p3601
ag153
aS'-563'
p3602
aS'76\r\n'
p3603
aa(lp3604
g7
ag26
aS'-563'
p3605
aS'76\r\n'
p3606
aa(lp3607
g11
ag26
aS'-561'
p3608
aS'74\r\n'
p3609
aa(lp3610
g105
aS'-1'
p3611
aS'-567'
p3612
aS'73\r\n'
p3613
aa(lp3614
g32
ag26
aS'-561'
p3615
aS'76\r\n'
p3616
aa(lp3617
g153
ag32
aS'-560'
p3618
aS'74\r\n'
p3619
aa(lp3620
g153
aS'12'
p3621
aS'-555'
p3622
aS'73\r\n'
p3623
aa(lp3624
g7
aS'13'
p3625
aS'-563'
p3626
aS'75\r\n'
p3627
aa(lp3628
S'-1'
p3629
aS'14'
p3630
aS'-568'
p3631
aS'72\r\n'
p3632
aa(lp3633
g26
aS'16'
p3634
aS'-564'
p3635
aS'75\r\n'
p3636
aa(lp3637
S'-3'
p3638
aS'11'
p3639
aS'-552'
p3640
aS'72\r\n'
p3641
aa(lp3642
S'-4'
p3643
aS'10'
p3644
aS'-558'
p3645
aS'71\r\n'
p3646
aa(lp3647
g26
ag32
aS'-555'
p3648
aS'75\r\n'
p3649
aa(lp3650
g26
ag26
aS'-557'
p3651
aS'71\r\n'
p3652
aa(lp3653
g26
ag7
aS'-563'
p3654
aS'75\r\n'
p3655
aa(lp3656
S'-2'
p3657
aS'-2'
p3658
aS'-555'
p3659
aS'72\r\n'
p3660
aa(lp3661
S'-1'
p3662
ag11
aS'-551'
p3663
aS'71\r\n'
p3664
aa(lp3665
S'-1'
p3666
ag16
aS'-547'
p3667
aS'71\r\n'
p3668
aa(lp3669
g153
aS'11'
p3670
aS'-547'
p3671
aS'72\r\n'
p3672
aa(lp3673
g7
aS'10'
p3674
aS'-552'
p3675
aS'75\r\n'
p3676
aa(lp3677
S'-2'
p3678
ag372
aS'-556'
p3679
aS'73\r\n'
p3680
aa(lp3681
S'-4'
p3682
ag105
aS'-557'
p3683
aS'75\r\n'
p3684
aa(lp3685
g26
ag16
aS'-556'
p3686
aS'75\r\n'
p3687
aa(lp3688
g32
ag7
aS'-554'
p3689
aS'76\r\n'
p3690
aa(lp3691
g153
ag26
aS'-552'
p3692
aS'71\r\n'
p3693
aa(lp3694
S'-4'
p3695
ag7
aS'-556'
p3696
aS'74\r\n'
p3697
aa(lp3698
S'-1'
p3699
ag26
aS'-561'
p3700
aS'71\r\n'
p3701
aa(lp3702
g153
ag7
aS'-559'
p3703
aS'76\r\n'
p3704
aa(lp3705
g100
aS'-1'
p3706
aS'-564'
p3707
aS'73\r\n'
p3708
aa(lp3709
g7
ag26
aS'-556'
p3710
aS'74\r\n'
p3711
aa(lp3712
g7
aS'-3'
p3713
aS'-550'
p3714
aS'71\r\n'
p3715
aa(lp3716
g26
ag7
aS'-552'
p3717
aS'72\r\n'
p3718
aa(lp3719
g26
ag26
aS'-551'
p3720
aS'74\r\n'
p3721
aa(lp3722
g100
ag11
aS'-557'
p3723
aS'71\r\n'
p3724
aa(lp3725
g105
ag32
aS'-559'
p3726
aS'75\r\n'
p3727
aa(lp3728
g26
ag32
aS'-557'
p3729
aS'71\r\n'
p3730
aa(lp3731
S'-1'
p3732
ag7
aS'-552'
p3733
aS'71\r\n'
p3734
aa(lp3735
S'-2'
p3736
aS'-4'
p3737
aS'-552'
p3738
aS'75\r\n'
p3739
aa(lp3740
S'-2'
p3741
aS'-4'
p3742
aS'-554'
p3743
aS'73\r\n'
p3744
aa(lp3745
S'-1'
p3746
ag26
aS'-558'
p3747
aS'75\r\n'
p3748
aa(lp3749
g26
ag26
aS'-558'
p3750
aS'75\r\n'
p3751
aa(lp3752
S'-5'
p3753
aS'12'
p3754
aS'-561'
p3755
aS'76\r\n'
p3756
aa(lp3757
S'-7'
p3758
aS'13'
p3759
aS'-562'
p3760
aS'74\r\n'
p3761
aa(lp3762
S'-7'
p3763
ag372
aS'-553'
p3764
aS'73\r\n'
p3765
aa(lp3766
S'-3'
p3767
ag105
aS'-554'
p3768
aS'75\r\n'
p3769
aa(lp3770
S'-3'
p3771
ag26
aS'-550'
p3772
aS'72\r\n'
p3773
aa(lp3774
g7
aS'-1'
p3775
aS'-556'
p3776
aS'71\r\n'
p3777
aa(lp3778
g32
ag26
aS'-561'
p3779
aS'71\r\n'
p3780
aa(lp3781
g153
ag7
aS'-558'
p3782
aS'72\r\n'
p3783
aa(lp3784
g153
aS'11'
p3785
aS'-557'
p3786
aS'72\r\n'
p3787
aa(lp3788
g26
aS'18'
p3789
aS'-553'
p3790
aS'73\r\n'
p3791
aa(lp3792
g7
aS'15'
p3793
aS'-562'
p3794
aS'73\r\n'
p3795
aa(lp3796
g32
aS'18'
p3797
aS'-558'
p3798
aS'73\r\n'
p3799
aa(lp3800
g153
aS'14'
p3801
aS'-561'
p3802
aS'72\r\n'
p3803
aa(lp3804
g105
aS'12'
p3805
aS'-567'
p3806
aS'72\r\n'
p3807
aa(lp3808
g100
ag21
aS'-569'
p3809
aS'74\r\n'
p3810
aa(lp3811
g105
ag153
aS'-565'
p3812
aS'75\r\n'
p3813
aa(lp3814
g372
ag11
aS'-562'
p3815
aS'76\r\n'
p3816
aa(lp3817
g32
ag11
aS'-560'
p3818
aS'72\r\n'
p3819
aa(lp3820
S'10'
p3821
ag26
aS'-557'
p3822
aS'72\r\n'
p3823
aa(lp3824
g153
ag26
aS'-553'
p3825
aS'72\r\n'
p3826
aa(lp3827
g7
ag11
aS'-555'
p3828
aS'75\r\n'
p3829
aa(lp3830
g7
ag100
aS'-553'
p3831
aS'73\r\n'
p3832
aa(lp3833
g7
ag372
aS'-543'
p3834
aS'73\r\n'
p3835
aa(lp3836
S'-5'
p3837
aS'16'
p3838
aS'-551'
p3839
aS'76\r\n'
p3840
aa(lp3841
S'-9'
p3842
aS'16'
p3843
aS'-555'
p3844
aS'71\r\n'
p3845
aa(lp3846
S'-4'
p3847
aS'13'
p3848
aS'-560'
p3849
aS'74\r\n'
p3850
aa(lp3851
g26
ag21
aS'-562'
p3852
aS'76\r\n'
p3853
aa(lp3854
g16
ag26
aS'-556'
p3855
aS'72\r\n'
p3856
aa(lp3857
g153
aS'-4'
p3858
aS'-554'
p3859
aS'71\r\n'
p3860
aa(lp3861
g11
aS'-1'
p3862
aS'-561'
p3863
aS'72\r\n'
p3864
aa(lp3865
g26
aS'-1'
p3866
aS'-561'
p3867
aS'72\r\n'
p3868
aa(lp3869
g26
aS'-3'
p3870
aS'-563'
p3871
aS'74\r\n'
p3872
aa(lp3873
g26
ag26
aS'-559'
p3874
aS'72\r\n'
p3875
aa(lp3876
g26
ag26
aS'-562'
p3877
aS'76\r\n'
p3878
aa(lp3879
S'-2'
p3880
ag11
aS'-556'
p3881
aS'71\r\n'
p3882
aa(lp3883
S'-3'
p3884
ag100
aS'-560'
p3885
aS'76\r\n'
p3886
aa(lp3887
g7
ag372
aS'-557'
p3888
aS'72\r\n'
p3889
aa(lp3890
S'-2'
p3891
ag21
aS'-549'
p3892
aS'73\r\n'
p3893
aa(lp3894
S'-4'
p3895
ag21
aS'-552'
p3896
aS'76\r\n'
p3897
aa(lp3898
S'-2'
p3899
ag16
aS'-555'
p3900
aS'75\r\n'
p3901
aa(lp3902
S'-1'
p3903
ag26
aS'-559'
p3904
aS'74\r\n'
p3905
aa(lp3906
g26
ag372
aS'-558'
p3907
aS'76\r\n'
p3908
aa(lp3909
S'-2'
p3910
ag100
aS'-547'
p3911
aS'76\r\n'
p3912
aa(lp3913
S'-4'
p3914
ag21
aS'-560'
p3915
aS'73\r\n'
p3916
aa(lp3917
g26
ag21
aS'-567'
p3918
aS'75\r\n'
p3919
aa(lp3920
g7
ag16
aS'-568'
p3921
aS'71\r\n'
p3922
aa(lp3923
g7
ag32
aS'-560'
p3924
aS'74\r\n'
p3925
aa(lp3926
g153
ag7
aS'-557'
p3927
aS'72\r\n'
p3928
aa(lp3929
g105
ag100
aS'-555'
p3930
aS'71\r\n'
p3931
aa(lp3932
S'10'
p3933
ag105
aS'-568'
p3934
aS'74\r\n'
p3935
aa(lp3936
g100
ag16
aS'-563'
p3937
aS'76\r\n'
p3938
aa(lp3939
g11
ag105
aS'-565'
p3940
aS'72\r\n'
p3941
aa(lp3942
g26
ag100
aS'-573'
p3943
aS'72\r\n'
p3944
aa(lp3945
g11
ag105
aS'-565'
p3946
aS'75\r\n'
p3947
aa(lp3948
g11
aS'11'
p3949
aS'-563'
p3950
aS'75\r\n'
p3951
aa(lp3952
g26
ag7
aS'-566'
p3953
aS'73\r\n'
p3954
aa(lp3955
g153
ag26
aS'-567'
p3956
aS'76\r\n'
p3957
aa(lp3958
g11
aS'-9'
p3959
aS'-569'
p3960
aS'73\r\n'
p3961
aa(lp3962
S'-4'
p3963
aS'-6'
p3964
aS'-560'
p3965
aS'72\r\n'
p3966
aa(lp3967
S'-1'
p3968
aS'-3'
p3969
aS'-558'
p3970
aS'71\r\n'
p3971
aa(lp3972
S'-1'
p3973
aS'-2'
p3974
aS'-559'
p3975
aS'74\r\n'
p3976
aa(lp3977
S'-1'
p3978
aS'-1'
p3979
aS'-559'
p3980
aS'75\r\n'
p3981
aa(lp3982
g7
ag7
aS'-560'
p3983
aS'76\r\n'
p3984
aa(lp3985
g26
ag32
aS'-562'
p3986
aS'76\r\n'
p3987
aa(lp3988
S'-1'
p3989
ag32
aS'-557'
p3990
aS'71\r\n'
p3991
aa(lp3992
g7
ag16
aS'-566'
p3993
aS'73\r\n'
p3994
aa(lp3995
g11
ag32
aS'-562'
p3996
aS'74\r\n'
p3997
aa(lp3998
g7
ag372
aS'-563'
p3999
aS'72\r\n'
p4000
aa(lp4001
g16
ag21
aS'-554'
p4002
aS'71\r\n'
p4003
aa(lp4004
g105
ag100
aS'-557'
p4005
aS'74\r\n'
p4006
aa(lp4007
g7
ag105
aS'-550'
p4008
aS'71\r\n'
p4009
aa(lp4010
g100
ag7
aS'-554'
p4011
aS'72\r\n'
p4012
aa(lp4013
g16
aS'-1'
p4014
aS'-546'
p4015
aS'73\r\n'
p4016
aa(lp4017
g100
ag26
aS'-550'
p4018
aS'71\r\n'
p4019
aa(lp4020
g16
ag26
aS'-553'
p4021
aS'72\r\n'
p4022
aa(lp4023
g153
ag26
aS'-564'
p4024
aS'71\r\n'
p4025
aa(lp4026
g153
aS'-1'
p4027
aS'-569'
p4028
aS'73\r\n'
p4029
aa(lp4030
g7
ag26
aS'-562'
p4031
aS'71\r\n'
p4032
aa(lp4033
S'-2'
p4034
aS'-3'
p4035
aS'-555'
p4036
aS'71\r\n'
p4037
aa(lp4038
S'-1'
p4039
aS'-1'
p4040
aS'-557'
p4041
aS'73\r\n'
p4042
aa(lp4043
S'-6'
p4044
aS'-4'
p4045
aS'-563'
p4046
aS'73\r\n'
p4047
aa(lp4048
S'-5'
p4049
aS'-3'
p4050
aS'-567'
p4051
aS'75\r\n'
p4052
aa(lp4053
S'-2'
p4054
aS'-1'
p4055
aS'-567'
p4056
aS'73\r\n'
p4057
aa(lp4058
S'-1'
p4059
ag11
aS'-571'
p4060
aS'76\r\n'
p4061
aa(lp4062
g26
aS'10'
p4063
aS'-566'
p4064
aS'71\r\n'
p4065
aa(lp4066
g153
aS'14'
p4067
aS'-566'
p4068
aS'73\r\n'
p4069
aa(lp4070
g16
aS'13'
p4071
aS'-564'
p4072
aS'72\r\n'
p4073
aa(lp4074
g32
aS'15'
p4075
aS'-566'
p4076
aS'72\r\n'
p4077
aa(lp4078
g372
ag372
aS'-571'
p4079
aS'72\r\n'
p4080
aa(lp4081
g105
ag7
aS'-570'
p4082
aS'73\r\n'
p4083
aa(lp4084
g16
ag26
aS'-563'
p4085
aS'71\r\n'
p4086
aa(lp4087
g7
ag7
aS'-569'
p4088
aS'76\r\n'
p4089
aa(lp4090
g26
aS'-1'
p4091
aS'-570'
p4092
aS'74\r\n'
p4093
aa(lp4094
g26
ag153
aS'-572'
p4095
aS'73\r\n'
p4096
aa(lp4097
S'-2'
p4098
ag11
aS'-567'
p4099
aS'76\r\n'
p4100
aa(lp4101
S'-1'
p4102
ag100
aS'-558'
p4103
aS'76\r\n'
p4104
aa(lp4105
g153
aS'12'
p4106
aS'-556'
p4107
aS'74\r\n'
p4108
aa(lp4109
g11
aS'15'
p4110
aS'-562'
p4111
aS'75\r\n'
p4112
aa(lp4113
g16
ag32
aS'-559'
p4114
aS'75\r\n'
p4115
aa(lp4116
g32
ag26
aS'-567'
p4117
aS'75\r\n'
p4118
aa(lp4119
g11
ag11
aS'-567'
p4120
aS'76\r\n'
p4121
aa(lp4122
S'-3'
p4123
ag32
aS'-563'
p4124
aS'71\r\n'
p4125
aa(lp4126
g7
aS'-1'
p4127
aS'-558'
p4128
aS'72\r\n'
p4129
aa(lp4130
g11
aS'-6'
p4131
aS'-552'
p4132
aS'74\r\n'
p4133
aa(lp4134
g153
aS'-3'
p4135
aS'-552'
p4136
aS'74\r\n'
p4137
aa(lp4138
g153
aS'-4'
p4139
aS'-550'
p4140
aS'75\r\n'
p4141
aa(lp4142
g100
ag7
aS'-553'
p4143
aS'73\r\n'
p4144
aa(lp4145
g11
ag11
aS'-552'
p4146
aS'71\r\n'
p4147
aa(lp4148
g372
ag105
aS'-558'
p4149
aS'74\r\n'
p4150
aa(lp4151
S'11'
p4152
ag105
aS'-547'
p4153
aS'75\r\n'
p4154
aa(lp4155
g21
ag372
aS'-552'
p4156
aS'76\r\n'
p4157
aa(lp4158
g153
aS'13'
p4159
aS'-549'
p4160
aS'74\r\n'
p4161
aa(lp4162
S'10'
p4163
ag32
aS'-548'
p4164
aS'72\r\n'
p4165
aa(lp4166
S'10'
p4167
ag7
aS'-554'
p4168
aS'73\r\n'
p4169
aa(lp4170
S'10'
p4171
ag7
aS'-563'
p4172
aS'75\r\n'
p4173
aa(lp4174
g32
aS'-1'
p4175
aS'-559'
p4176
aS'74\r\n'
p4177
aa(lp4178
g100
aS'-4'
p4179
aS'-564'
p4180
aS'74\r\n'
p4181
aa(lp4182
g11
ag7
aS'-564'
p4183
aS'75\r\n'
p4184
aa(lp4185
g26
ag153
aS'-568'
p4186
aS'73\r\n'
p4187
aa(lp4188
g32
ag100
aS'-567'
p4189
aS'71\r\n'
p4190
aa(lp4191
g11
ag100
aS'-560'
p4192
aS'75\r\n'
p4193
aa(lp4194
g26
ag105
aS'-548'
p4195
aS'74\r\n'
p4196
aa(lp4197
g26
ag16
aS'-557'
p4198
aS'71\r\n'
p4199
aa(lp4200
g26
ag153
aS'-567'
p4201
aS'75\r\n'
p4202
aa(lp4203
g26
ag32
aS'-565'
p4204
aS'75\r\n'
p4205
aa(lp4206
g32
ag11
aS'-567'
p4207
aS'74\r\n'
p4208
aa(lp4209
S'10'
p4210
ag26
aS'-568'
p4211
aS'73\r\n'
p4212
aa(lp4213
g21
ag26
aS'-568'
p4214
aS'75\r\n'
p4215
aa(lp4216
g7
ag153
aS'-573'
p4217
aS'72\r\n'
p4218
aa(lp4219
S'-1'
p4220
aS'11'
p4221
aS'-575'
p4222
aS'73\r\n'
p4223
aa(lp4224
g32
aS'12'
p4225
aS'-573'
p4226
aS'76\r\n'
p4227
aa(lp4228
g16
ag105
aS'-569'
p4229
aS'74\r\n'
p4230
aa(lp4231
g105
ag153
aS'-572'
p4232
aS'73\r\n'
p4233
aa(lp4234
g11
ag11
aS'-567'
p4235
aS'72\r\n'
p4236
aa(lp4237
g26
ag26
aS'-565'
p4238
aS'73\r\n'
p4239
aa(lp4240
g7
aS'-3'
p4241
aS'-562'
p4242
aS'74\r\n'
p4243
aa(lp4244
g26
aS'-4'
p4245
aS'-564'
p4246
aS'76\r\n'
p4247
aa(lp4248
g32
aS'-4'
p4249
aS'-569'
p4250
aS'76\r\n'
p4251
aa(lp4252
g11
aS'-4'
p4253
aS'-568'
p4254
aS'74\r\n'
p4255
aa(lp4256
g32
ag26
aS'-562'
p4257
aS'76\r\n'
p4258
aa(lp4259
g11
ag26
aS'-559'
p4260
aS'72\r\n'
p4261
aa(lp4262
S'-2'
p4263
ag26
aS'-554'
p4264
aS'76\r\n'
p4265
aa(lp4266
S'-3'
p4267
aS'-2'
p4268
aS'-557'
p4269
aS'74\r\n'
p4270
aa(lp4271
g153
aS'-3'
p4272
aS'-567'
p4273
aS'73\r\n'
p4274
aa(lp4275
S'-1'
p4276
aS'-3'
p4277
aS'-568'
p4278
aS'72\r\n'
p4279
aa(lp4280
g153
aS'-5'
p4281
aS'-559'
p4282
aS'73\r\n'
p4283
aa(lp4284
g26
aS'-6'
p4285
aS'-557'
p4286
aS'75\r\n'
p4287
aa(lp4288
S'-1'
p4289
aS'-4'
p4290
aS'-551'
p4291
aS'73\r\n'
p4292
aa(lp4293
S'-2'
p4294
ag26
aS'-559'
p4295
aS'75\r\n'
p4296
aa(lp4297
S'-4'
p4298
ag26
aS'-567'
p4299
aS'71\r\n'
p4300
aa(lp4301
S'-3'
p4302
aS'-6'
p4303
aS'-566'
p4304
aS'71\r\n'
p4305
aa(lp4306
S'-2'
p4307
aS'-6'
p4308
aS'-571'
p4309
aS'76\r\n'
p4310
aa(lp4311
S'-1'
p4312
aS'-3'
p4313
aS'-568'
p4314
aS'72\r\n'
p4315
aa(lp4316
g100
ag26
aS'-564'
p4317
aS'72\r\n'
p4318
aa(lp4319
g105
ag7
aS'-566'
p4320
aS'71\r\n'
p4321
aa(lp4322
g32
ag372
aS'-567'
p4323
aS'76\r\n'
p4324
aa(lp4325
g100
ag21
aS'-564'
p4326
aS'72\r\n'
p4327
aa(lp4328
g372
aS'12'
p4329
aS'-568'
p4330
aS'75\r\n'
p4331
aa(lp4332
g372
aS'10'
p4333
aS'-566'
p4334
aS'74\r\n'
p4335
aa(lp4336
g7
ag16
aS'-574'
p4337
aS'76\r\n'
p4338
aa(lp4339
g11
ag105
aS'-570'
p4340
aS'72\r\n'
p4341
aa(lp4342
g26
ag153
aS'-565'
p4343
aS'74\r\n'
p4344
aa(lp4345
g26
aS'-1'
p4346
aS'-565'
p4347
aS'76\r\n'
p4348
aa(lp4349
g153
aS'-4'
p4350
aS'-568'
p4351
aS'75\r\n'
p4352
aa(lp4353
g105
aS'-8'
p4354
aS'-575'
p4355
aS'76\r\n'
p4356
aa(lp4357
g105
aS'-7'
p4358
aS'-576'
p4359
aS'72\r\n'
p4360
aa(lp4361
g21
aS'-6'
p4362
aS'-575'
p4363
aS'74\r\n'
p4364
aa(lp4365
g153
aS'-3'
p4366
aS'-566'
p4367
aS'74\r\n'
p4368
aa(lp4369
g32
ag100
aS'-569'
p4370
aS'71\r\n'
p4371
aa(lp4372
g26
aS'14'
p4373
aS'-568'
p4374
aS'72\r\n'
p4375
aa(lp4376
g26
aS'22'
p4377
aS'-562'
p4378
aS'73\r\n'
p4379
aa(lp4380
S'-3'
p4381
aS'26'
p4382
aS'-557'
p4383
aS'72\r\n'
p4384
aa(lp4385
S'-1'
p4386
aS'21'
p4387
aS'-560'
p4388
aS'73\r\n'
p4389
aa(lp4390
S'-3'
p4391
aS'11'
p4392
aS'-559'
p4393
aS'72\r\n'
p4394
aa(lp4395
g11
aS'-1'
p4396
aS'-557'
p4397
aS'73\r\n'
p4398
aa(lp4399
g153
aS'-11'
p4400
aS'-554'
p4401
aS'74\r\n'
p4402
aa(lp4403
g26
aS'-16'
p4404
aS'-556'
p4405
aS'76\r\n'
p4406
aa(lp4407
g153
aS'-21'
p4408
aS'-556'
p4409
aS'76\r\n'
p4410
aa(lp4411
g7
aS'-10'
p4412
aS'-566'
p4413
aS'73\r\n'
p4414
aa(lp4415
g153
aS'-3'
p4416
aS'-566'
p4417
aS'71\r\n'
p4418
aa(lp4419
g26
ag153
aS'-564'
p4420
aS'71\r\n'
p4421
aa(lp4422
S'-4'
p4423
aS'15'
p4424
aS'-561'
p4425
aS'74\r\n'
p4426
aa(lp4427
g26
aS'19'
p4428
aS'-560'
p4429
aS'72\r\n'
p4430
aa(lp4431
S'-4'
p4432
aS'16'
p4433
aS'-558'
p4434
aS'76\r\n'
p4435
aa(lp4436
S'-5'
p4437
aS'16'
p4438
aS'-559'
p4439
aS'71\r\n'
p4440
aa(lp4441
S'-2'
p4442
aS'10'
p4443
aS'-568'
p4444
aS'76\r\n'
p4445
aa(lp4446
g7
ag153
aS'-570'
p4447
aS'75\r\n'
p4448
aa(lp4449
g7
aS'-6'
p4450
aS'-568'
p4451
aS'72\r\n'
p4452
aa(lp4453
g153
aS'-8'
p4454
aS'-569'
p4455
aS'74\r\n'
p4456
aa(lp4457
g100
aS'-13'
p4458
aS'-562'
p4459
aS'73\r\n'
p4460
aa(lp4461
g32
aS'-12'
p4462
aS'-558'
p4463
aS'73\r\n'
p4464
aa(lp4465
g153
aS'-20'
p4466
aS'-556'
p4467
aS'73\r\n'
p4468
aa(lp4469
g11
aS'-14'
p4470
aS'-560'
p4471
aS'72\r\n'
p4472
aa(lp4473
g32
aS'-11'
p4474
aS'-567'
p4475
aS'72\r\n'
p4476
aa(lp4477
g16
aS'-7'
p4478
aS'-566'
p4479
aS'73\r\n'
p4480
aa(lp4481
g100
aS'-4'
p4482
aS'-561'
p4483
aS'76\r\n'
p4484
aa(lp4485
g26
ag11
aS'-562'
p4486
aS'71\r\n'
p4487
aa(lp4488
S'-1'
p4489
aS'13'
p4490
aS'-562'
p4491
aS'73\r\n'
p4492
aa(lp4493
S'-7'
p4494
aS'32'
p4495
aS'-563'
p4496
aS'76\r\n'
p4497
aa(lp4498
S'-13'
p4499
aS'43'
p4500
aS'-558'
p4501
aS'75\r\n'
p4502
aa(lp4503
S'-14'
p4504
aS'39'
p4505
aS'-555'
p4506
aS'72\r\n'
p4507
aa(lp4508
S'-3'
p4509
aS'20'
p4510
aS'-568'
p4511
aS'72\r\n'
p4512
aa(lp4513
g105
aS'-2'
p4514
aS'-562'
p4515
aS'76\r\n'
p4516
aa(lp4517
S'15'
p4518
aS'-31'
p4519
aS'-566'
p4520
aS'72\r\n'
p4521
aa(lp4522
S'17'
p4523
aS'-39'
p4524
aS'-571'
p4525
aS'74\r\n'
p4526
aa(lp4527
S'16'
p4528
aS'-31'
p4529
aS'-557'
p4530
aS'76\r\n'
p4531
aa(lp4532
S'10'
p4533
aS'-13'
p4534
aS'-557'
p4535
aS'75\r\n'
p4536
aa(lp4537
g105
ag26
aS'-570'
p4538
aS'72\r\n'
p4539
aa(lp4540
g26
aS'12'
p4541
aS'-571'
p4542
aS'73\r\n'
p4543
aa(lp4544
S'-9'
p4545
aS'22'
p4546
aS'-571'
p4547
aS'75\r\n'
p4548
aa(lp4549
S'-14'
p4550
aS'35'
p4551
aS'-560'
p4552
aS'71\r\n'
p4553
aa(lp4554
S'-18'
p4555
aS'42'
p4556
aS'-558'
p4557
aS'71\r\n'
p4558
aa(lp4559
S'-11'
p4560
aS'39'
p4561
aS'-554'
p4562
aS'74\r\n'
p4563
aa(lp4564
S'-5'
p4565
aS'16'
p4566
aS'-554'
p4567
aS'72\r\n'
p4568
aa(lp4569
g11
aS'-9'
p4570
aS'-550'
p4571
aS'74\r\n'
p4572
aa(lp4573
S'11'
p4574
aS'-28'
p4575
aS'-548'
p4576
aS'73\r\n'
p4577
aa(lp4578
S'21'
p4579
aS'-34'
p4580
aS'-555'
p4581
aS'76\r\n'
p4582
aa(lp4583
S'15'
p4584
aS'-33'
p4585
aS'-557'
p4586
aS'74\r\n'
p4587
aa(lp4588
g21
aS'-12'
p4589
aS'-562'
p4590
aS'72\r\n'
p4591
aa(lp4592
g100
ag153
aS'-563'
p4593
aS'76\r\n'
p4594
aa(lp4595
S'-1'
p4596
aS'19'
p4597
aS'-555'
p4598
aS'73\r\n'
p4599
aa(lp4600
S'-11'
p4601
aS'30'
p4602
aS'-565'
p4603
aS'72\r\n'
p4604
aa(lp4605
S'-8'
p4606
aS'34'
p4607
aS'-562'
p4608
aS'73\r\n'
p4609
aa(lp4610
S'-2'
p4611
aS'30'
p4612
aS'-561'
p4613
aS'75\r\n'
p4614
aa(lp4615
g11
aS'22'
p4616
aS'-561'
p4617
aS'72\r\n'
p4618
aa(lp4619
g26
ag105
aS'-562'
p4620
aS'75\r\n'
p4621
aa(lp4622
S'-2'
p4623
aS'-3'
p4624
aS'-564'
p4625
aS'76\r\n'
p4626
aa(lp4627
g153
aS'-11'
p4628
aS'-565'
p4629
aS'73\r\n'
p4630
aa(lp4631
g7
aS'-14'
p4632
aS'-564'
p4633
aS'71\r\n'
p4634
aa(lp4635
g32
aS'-22'
p4636
aS'-571'
p4637
aS'76\r\n'
p4638
aa(lp4639
g105
aS'-26'
p4640
aS'-563'
p4641
aS'73\r\n'
p4642
aa(lp4643
g7
aS'-8'
p4644
aS'-572'
p4645
aS'72\r\n'
p4646
aa(lp4647
S'-7'
p4648
ag16
aS'-561'
p4649
aS'72\r\n'
p4650
aa(lp4651
S'-9'
p4652
aS'23'
p4653
aS'-564'
p4654
aS'71\r\n'
p4655
aa(lp4656
S'-13'
p4657
aS'28'
p4658
aS'-564'
p4659
aS'75\r\n'
p4660
aa(lp4661
S'-12'
p4662
aS'24'
p4663
aS'-559'
p4664
aS'76\r\n'
p4665
aa(lp4666
S'-5'
p4667
aS'19'
p4668
aS'-567'
p4669
aS'75\r\n'
p4670
aa(lp4671
g11
ag26
aS'-573'
p4672
aS'74\r\n'
p4673
aa(lp4674
S'10'
p4675
aS'-13'
p4676
aS'-573'
p4677
aS'72\r\n'
p4678
aa(lp4679
g21
aS'-21'
p4680
aS'-580'
p4681
aS'74\r\n'
p4682
aa(lp4683
g105
aS'-25'
p4684
aS'-580'
p4685
aS'71\r\n'
p4686
aa(lp4687
g372
aS'-17'
p4688
aS'-577'
p4689
aS'73\r\n'
p4690
aa(lp4691
g153
aS'-6'
p4692
aS'-575'
p4693
aS'72\r\n'
p4694
aa(lp4695
g26
ag26
aS'-563'
p4696
aS'72\r\n'
p4697
aa(lp4698
S'-6'
p4699
ag372
aS'-560'
p4700
aS'73\r\n'
p4701
aa(lp4702
S'-6'
p4703
aS'18'
p4704
aS'-552'
p4705
aS'74\r\n'
p4706
aa(lp4707
S'-5'
p4708
aS'23'
p4709
aS'-559'
p4710
aS'74\r\n'
p4711
aa(lp4712
S'-4'
p4713
aS'23'
p4714
aS'-562'
p4715
aS'74\r\n'
p4716
aa(lp4717
g7
aS'17'
p4718
aS'-560'
p4719
aS'76\r\n'
p4720
aa(lp4721
S'-2'
p4722
ag100
aS'-562'
p4723
aS'73\r\n'
p4724
aa(lp4725
g11
aS'-2'
p4726
aS'-561'
p4727
aS'74\r\n'
p4728
aa(lp4729
g32
aS'-15'
p4730
aS'-566'
p4731
aS'73\r\n'
p4732
aa(lp4733
S'11'
p4734
aS'-16'
p4735
aS'-565'
p4736
aS'76\r\n'
p4737
aa(lp4738
S'10'
p4739
aS'-13'
p4740
aS'-563'
p4741
aS'71\r\n'
p4742
aa(lp4743
g153
aS'-3'
p4744
aS'-568'
p4745
aS'75\r\n'
p4746
aa(lp4747
S'-3'
p4748
ag153
aS'-565'
p4749
aS'71\r\n'
p4750
aa(lp4751
S'-5'
p4752
aS'10'
p4753
aS'-562'
p4754
aS'71\r\n'
p4755
aa(lp4756
S'-5'
p4757
ag21
aS'-561'
p4758
aS'73\r\n'
p4759
aa(lp4760
S'-3'
p4761
ag32
aS'-564'
p4762
aS'75\r\n'
p4763
aa(lp4764
g26
ag7
aS'-557'
p4765
aS'76\r\n'
p4766
aa(lp4767
g11
ag26
aS'-567'
p4768
aS'76\r\n'
p4769
aa(lp4770
g7
aS'-5'
p4771
aS'-561'
p4772
aS'72\r\n'
p4773
aa(lp4774
g153
aS'-12'
p4775
aS'-567'
p4776
aS'71\r\n'
p4777
aa(lp4778
g105
aS'-16'
p4779
aS'-565'
p4780
aS'74\r\n'
p4781
aa(lp4782
g153
aS'-22'
p4783
aS'-563'
p4784
aS'75\r\n'
p4785
aa(lp4786
g7
aS'-16'
p4787
aS'-556'
p4788
aS'74\r\n'
p4789
aa(lp4790
S'-1'
p4791
aS'-2'
p4792
aS'-556'
p4793
aS'73\r\n'
p4794
aa(lp4795
S'-1'
p4796
ag105
aS'-550'
p4797
aS'72\r\n'
p4798
aa(lp4799
S'-3'
p4800
aS'16'
p4801
aS'-554'
p4802
aS'75\r\n'
p4803
aa(lp4804
S'-9'
p4805
aS'20'
p4806
aS'-552'
p4807
aS'76\r\n'
p4808
aa(lp4809
S'-4'
p4810
aS'13'
p4811
aS'-552'
p4812
aS'73\r\n'
p4813
aa(lp4814
S'-4'
p4815
ag16
aS'-557'
p4816
aS'71\r\n'
p4817
aa(lp4818
S'-4'
p4819
aS'-1'
p4820
aS'-559'
p4821
aS'74\r\n'
p4822
aa(lp4823
S'-3'
p4824
aS'-3'
p4825
aS'-560'
p4826
aS'76\r\n'
p4827
aa(lp4828
S'-4'
p4829
aS'-3'
p4830
aS'-558'
p4831
aS'74\r\n'
p4832
aa(lp4833
S'-2'
p4834
aS'-4'
p4835
aS'-565'
p4836
aS'76\r\n'
p4837
aa(lp4838
S'-2'
p4839
aS'-4'
p4840
aS'-569'
p4841
aS'71\r\n'
p4842
aa(lp4843
S'-1'
p4844
aS'-8'
p4845
aS'-568'
p4846
aS'71\r\n'
p4847
aa(lp4848
g16
aS'-6'
p4849
aS'-567'
p4850
aS'75\r\n'
p4851
aa(lp4852
g105
aS'-1'
p4853
aS'-568'
p4854
aS'74\r\n'
p4855
aa(lp4856
g32
ag26
aS'-552'
p4857
aS'75\r\n'
p4858
aa(lp4859
g153
ag100
aS'-554'
p4860
aS'74\r\n'
p4861
aa(lp4862
S'-3'
p4863
ag21
aS'-558'
p4864
aS'72\r\n'
p4865
aa(lp4866
S'-4'
p4867
aS'10'
p4868
aS'-553'
p4869
aS'76\r\n'
p4870
aa(lp4871
S'-1'
p4872
ag372
aS'-549'
p4873
aS'72\r\n'
p4874
aa(lp4875
g26
ag11
aS'-560'
p4876
aS'71\r\n'
p4877
aa(lp4878
S'-2'
p4879
aS'-4'
p4880
aS'-563'
p4881
aS'71\r\n'
p4882
aa(lp4883
S'-2'
p4884
aS'-4'
p4885
aS'-561'
p4886
aS'74\r\n'
p4887
aa(lp4888
S'-2'
p4889
ag26
aS'-561'
p4890
aS'76\r\n'
p4891
aa(lp4892
S'-4'
p4893
ag26
aS'-558'
p4894
aS'74\r\n'
p4895
aa(lp4896
S'-5'
p4897
ag26
aS'-562'
p4898
aS'72\r\n'
p4899
aa(lp4900
S'-1'
p4901
ag26
aS'-561'
p4902
aS'74\r\n'
p4903
aa(lp4904
S'-1'
p4905
aS'-6'
p4906
aS'-571'
p4907
aS'76\r\n'
p4908
aa(lp4909
S'-2'
p4910
ag26
aS'-573'
p4911
aS'72\r\n'
p4912
aa(lp4913
S'-4'
p4914
ag7
aS'-567'
p4915
aS'76\r\n'
p4916
aa(lp4917
S'-6'
p4918
ag105
aS'-563'
p4919
aS'76\r\n'
p4920
aa(lp4921
S'-5'
p4922
ag16
aS'-559'
p4923
aS'76\r\n'
p4924
aa(lp4925
S'-6'
p4926
ag372
aS'-563'
p4927
aS'72\r\n'
p4928
aa(lp4929
S'-6'
p4930
ag21
aS'-557'
p4931
aS'75\r\n'
p4932
aa(lp4933
S'-5'
p4934
ag16
aS'-557'
p4935
aS'72\r\n'
p4936
aa(lp4937
S'-6'
p4938
ag16
aS'-555'
p4939
aS'74\r\n'
p4940
aa(lp4941
S'-4'
p4942
ag105
aS'-553'
p4943
aS'76\r\n'
p4944
aa(lp4945
g7
ag100
aS'-552'
p4946
aS'76\r\n'
p4947
aa(lp4948
S'-1'
p4949
ag153
aS'-561'
p4950
aS'73\r\n'
p4951
aa(lp4952
g153
ag11
aS'-550'
p4953
aS'74\r\n'
p4954
aa(lp4955
g7
ag153
aS'-553'
p4956
aS'75\r\n'
p4957
aa(lp4958
S'-2'
p4959
ag11
aS'-562'
p4960
aS'76\r\n'
p4961
aa(lp4962
S'-3'
p4963
ag26
aS'-558'
p4964
aS'74\r\n'
p4965
aa(lp4966
g26
ag105
aS'-563'
p4967
aS'74\r\n'
p4968
aa(lp4969
S'-3'
p4970
ag21
aS'-577'
p4971
aS'73\r\n'
p4972
aa(lp4973
S'-2'
p4974
ag372
aS'-574'
p4975
aS'76\r\n'
p4976
aa(lp4977
S'-2'
p4978
ag32
aS'-568'
p4979
aS'72\r\n'
p4980
aa(lp4981
g26
aS'-1'
p4982
aS'-570'
p4983
aS'74\r\n'
p4984
aa(lp4985
S'-1'
p4986
aS'-9'
p4987
aS'-580'
p4988
aS'71\r\n'
p4989
aa(lp4990
g153
aS'-13'
p4991
aS'-573'
p4992
aS'74\r\n'
p4993
aa(lp4994
g11
aS'-12'
p4995
aS'-567'
p4996
aS'71\r\n'
p4997
aa(lp4998
g153
aS'-1'
p4999
aS'-562'
p5000
aS'74\r\n'
p5001
aa(lp5002
g153
ag153
aS'-562'
p5003
aS'76\r\n'
p5004
aa(lp5005
S'-4'
p5006
ag372
aS'-567'
p5007
aS'76\r\n'
p5008
aa(lp5009
S'-2'
p5010
aS'11'
p5011
aS'-562'
p5012
aS'74\r\n'
p5013
aa(lp5014
g26
ag21
aS'-554'
p5015
aS'74\r\n'
p5016
aa(lp5017
g11
ag105
aS'-560'
p5018
aS'76\r\n'
p5019
aa(lp5020
g153
ag26
aS'-561'
p5021
aS'75\r\n'
p5022
aa(lp5023
g26
aS'-4'
p5024
aS'-560'
p5025
aS'72\r\n'
p5026
aa(lp5027
g153
aS'-4'
p5028
aS'-559'
p5029
aS'75\r\n'
p5030
aa(lp5031
g7
aS'-6'
p5032
aS'-554'
p5033
aS'72\r\n'
p5034
aa(lp5035
S'-3'
p5036
aS'-3'
p5037
aS'-557'
p5038
aS'73\r\n'
p5039
aa(lp5040
S'-8'
p5041
ag26
aS'-555'
p5042
aS'75\r\n'
p5043
aa(lp5044
S'-3'
p5045
ag105
aS'-557'
p5046
aS'72\r\n'
p5047
aa(lp5048
g26
ag100
aS'-558'
p5049
aS'72\r\n'
p5050
aa(lp5051
g26
ag100
aS'-571'
p5052
aS'72\r\n'
p5053
aa(lp5054
g26
ag26
aS'-563'
p5055
aS'71\r\n'
p5056
aa(lp5057
S'-1'
p5058
aS'-1'
p5059
aS'-561'
p5060
aS'72\r\n'
p5061
aa(lp5062
g26
ag32
aS'-559'
p5063
aS'76\r\n'
p5064
aa(lp5065
S'-5'
p5066
ag100
aS'-570'
p5067
aS'74\r\n'
p5068
aa(lp5069
S'-9'
p5070
ag153
aS'-568'
p5071
aS'74\r\n'
p5072
aa(lp5073
S'-9'
p5074
ag105
aS'-571'
p5075
aS'71\r\n'
p5076
aa(lp5077
S'-5'
p5078
ag11
aS'-573'
p5079
aS'74\r\n'
p5080
aa(lp5081
g26
aS'-5'
p5082
aS'-573'
p5083
aS'72\r\n'
p5084
aa(lp5085
g7
aS'-5'
p5086
aS'-567'
p5087
aS'71\r\n'
p5088
aa(lp5089
g26
aS'-6'
p5090
aS'-560'
p5091
aS'75\r\n'
p5092
aa(lp5093
g153
aS'-1'
p5094
aS'-557'
p5095
aS'71\r\n'
p5096
aa(lp5097
S'-2'
p5098
aS'10'
p5099
aS'-566'
p5100
aS'73\r\n'
p5101
aa(lp5102
S'-5'
p5103
aS'18'
p5104
aS'-570'
p5105
aS'71\r\n'
p5106
aa(lp5107
S'-6'
p5108
aS'20'
p5109
aS'-568'
p5110
aS'75\r\n'
p5111
aa(lp5112
S'-3'
p5113
aS'13'
p5114
aS'-573'
p5115
aS'73\r\n'
p5116
aa(lp5117
S'-1'
p5118
ag11
aS'-574'
p5119
aS'75\r\n'
p5120
aa(lp5121
g100
aS'-2'
p5122
aS'-573'
p5123
aS'76\r\n'
p5124
aa(lp5125
g372
aS'-14'
p5126
aS'-573'
p5127
aS'72\r\n'
p5128
aa(lp5129
S'10'
p5130
aS'-11'
p5131
aS'-568'
p5132
aS'71\r\n'
p5133
aa(lp5134
g372
aS'-11'
p5135
aS'-565'
p5136
aS'74\r\n'
p5137
aa(lp5138
S'11'
p5139
aS'-6'
p5140
aS'-568'
p5141
aS'75\r\n'
p5142
aa(lp5143
g372
ag100
aS'-562'
p5144
aS'72\r\n'
p5145
aa(lp5146
g7
aS'12'
p5147
aS'-561'
p5148
aS'73\r\n'
p5149
aa(lp5150
S'-1'
p5151
aS'21'
p5152
aS'-561'
p5153
aS'75\r\n'
p5154
aa(lp5155
g32
aS'25'
p5156
aS'-566'
p5157
aS'76\r\n'
p5158
aa(lp5159
g7
aS'11'
p5160
aS'-574'
p5161
aS'72\r\n'
p5162
aa(lp5163
g105
ag26
aS'-579'
p5164
aS'73\r\n'
p5165
aa(lp5166
g105
aS'-8'
p5167
aS'-567'
p5168
aS'72\r\n'
p5169
aa(lp5170
g105
aS'-13'
p5171
aS'-570'
p5172
aS'76\r\n'
p5173
aa(lp5174
g153
aS'-9'
p5175
aS'-566'
p5176
aS'75\r\n'
p5177
aa(lp5178
g153
aS'-3'
p5179
aS'-562'
p5180
aS'74\r\n'
p5181
aa(lp5182
S'-2'
p5183
ag100
aS'-563'
p5184
aS'76\r\n'
p5185
aa(lp5186
S'-4'
p5187
ag32
aS'-566'
p5188
aS'75\r\n'
p5189
aa(lp5190
S'-2'
p5191
ag16
aS'-578'
p5192
aS'74\r\n'
p5193
aa(lp5194
g7
aS'-1'
p5195
aS'-570'
p5196
aS'74\r\n'
p5197
aa(lp5198
g16
aS'-1'
p5199
aS'-573'
p5200
aS'75\r\n'
p5201
aa(lp5202
g100
ag26
aS'-563'
p5203
aS'74\r\n'
p5204
aa(lp5205
g32
ag26
aS'-566'
p5206
aS'74\r\n'
p5207
aa(lp5208
g7
ag11
aS'-566'
p5209
aS'73\r\n'
p5210
aa(lp5211
g26
ag16
aS'-565'
p5212
aS'76\r\n'
p5213
aa(lp5214
g26
ag105
aS'-562'
p5215
aS'71\r\n'
p5216
aa(lp5217
g32
ag372
aS'-558'
p5218
aS'74\r\n'
p5219
aa(lp5220
g32
ag100
aS'-562'
p5221
aS'74\r\n'
p5222
aa(lp5223
g32
ag153
aS'-555'
p5224
aS'73\r\n'
p5225
aa(lp5226
g26
ag100
aS'-557'
p5227
aS'74\r\n'
p5228
aa(lp5229
S'-1'
p5230
ag32
aS'-557'
p5231
aS'72\r\n'
p5232
aa(lp5233
g26
aS'10'
p5234
aS'-566'
p5235
aS'71\r\n'
p5236
aa(lp5237
S'-1'
p5238
aS'15'
p5239
aS'-575'
p5240
aS'73\r\n'
p5241
aa(lp5242
S'-4'
p5243
aS'12'
p5244
aS'-575'
p5245
aS'72\r\n'
p5246
aa(lp5247
S'-4'
p5248
ag100
aS'-575'
p5249
aS'74\r\n'
p5250
aa(lp5251
g7
aS'-4'
p5252
aS'-568'
p5253
aS'71\r\n'
p5254
aa(lp5255
g26
aS'-8'
p5256
aS'-559'
p5257
aS'76\r\n'
p5258
aa(lp5259
g26
aS'-13'
p5260
aS'-565'
p5261
aS'75\r\n'
p5262
aa(lp5263
S'-3'
p5264
aS'-7'
p5265
aS'-563'
p5266
aS'73\r\n'
p5267
aa(lp5268
S'-2'
p5269
aS'-4'
p5270
aS'-561'
p5271
aS'73\r\n'
p5272
aa(lp5273
S'-3'
p5274
ag100
aS'-566'
p5275
aS'73\r\n'
p5276
aa(lp5277
S'-8'
p5278
aS'13'
p5279
aS'-567'
p5280
aS'71\r\n'
p5281
aa(lp5282
S'-10'
p5283
aS'14'
p5284
aS'-564'
p5285
aS'76\r\n'
p5286
aa(lp5287
S'-9'
p5288
aS'11'
p5289
aS'-566'
p5290
aS'73\r\n'
p5291
aa(lp5292
S'-8'
p5293
ag105
aS'-568'
p5294
aS'74\r\n'
p5295
aa(lp5296
S'-4'
p5297
aS'-2'
p5298
aS'-573'
p5299
aS'76\r\n'
p5300
aa(lp5301
g26
aS'-12'
p5302
aS'-575'
p5303
aS'72\r\n'
p5304
aa(lp5305
g11
aS'-13'
p5306
aS'-572'
p5307
aS'71\r\n'
p5308
aa(lp5309
g100
aS'-9'
p5310
aS'-567'
p5311
aS'71\r\n'
p5312
aa(lp5313
g26
ag26
aS'-560'
p5314
aS'74\r\n'
p5315
aa(lp5316
S'-2'
p5317
ag105
aS'-551'
p5318
aS'76\r\n'
p5319
aa(lp5320
S'-5'
p5321
aS'10'
p5322
aS'-558'
p5323
aS'71\r\n'
p5324
aa(lp5325
S'-3'
p5326
aS'17'
p5327
aS'-560'
p5328
aS'74\r\n'
p5329
aa(lp5330
g26
ag32
aS'-565'
p5331
aS'72\r\n'
p5332
aa(lp5333
g11
ag11
aS'-564'
p5334
aS'76\r\n'
p5335
aa(lp5336
g32
ag26
aS'-560'
p5337
aS'74\r\n'
p5338
aa(lp5339
g105
aS'-5'
p5340
aS'-558'
p5341
aS'73\r\n'
p5342
aa(lp5343
g372
ag26
aS'-550'
p5344
aS'76\r\n'
p5345
aa(lp5346
g21
aS'-6'
p5347
aS'-555'
p5348
aS'72\r\n'
p5349
aa(lp5350
g32
aS'-2'
p5351
aS'-554'
p5352
aS'76\r\n'
p5353
aa(lp5354
g32
ag26
aS'-555'
p5355
aS'71\r\n'
p5356
aa(lp5357
g32
aS'-2'
p5358
aS'-557'
p5359
aS'74\r\n'
p5360
aa(lp5361
g26
aS'-3'
p5362
aS'-557'
p5363
aS'76\r\n'
p5364
aa(lp5365
g26
aS'-7'
p5366
aS'-557'
p5367
aS'75\r\n'
p5368
aa(lp5369
g7
aS'-8'
p5370
aS'-561'
p5371
aS'75\r\n'
p5372
aa(lp5373
g32
aS'-4'
p5374
aS'-564'
p5375
aS'74\r\n'
p5376
aa(lp5377
g7
aS'-2'
p5378
aS'-562'
p5379
aS'75\r\n'
p5380
aa(lp5381
g26
aS'12'
p5382
aS'-565'
p5383
aS'71\r\n'
p5384
aa(lp5385
g11
aS'10'
p5386
aS'-562'
p5387
aS'74\r\n'
p5388
aa(lp5389
g26
ag153
aS'-560'
p5390
aS'71\r\n'
p5391
aa(lp5392
g26
aS'-6'
p5393
aS'-562'
p5394
aS'74\r\n'
p5395
aa(lp5396
g26
aS'-11'
p5397
aS'-569'
p5398
aS'73\r\n'
p5399
aa(lp5400
S'-4'
p5401
aS'-11'
p5402
aS'-569'
p5403
aS'72\r\n'
p5404
aa(lp5405
g7
aS'-13'
p5406
aS'-564'
p5407
aS'74\r\n'
p5408
aa(lp5409
g153
aS'-6'
p5410
aS'-565'
p5411
aS'74\r\n'
p5412
aa(lp5413
g372
aS'-3'
p5414
aS'-572'
p5415
aS'76\r\n'
p5416
aa(lp5417
g105
ag26
aS'-575'
p5418
aS'71\r\n'
p5419
aa(lp5420
S'-2'
p5421
ag100
aS'-578'
p5422
aS'71\r\n'
p5423
aa(lp5424
g26
aS'19'
p5425
aS'-576'
p5426
aS'73\r\n'
p5427
aa(lp5428
S'-2'
p5429
aS'25'
p5430
aS'-564'
p5431
aS'72\r\n'
p5432
aa(lp5433
S'-3'
p5434
aS'19'
p5435
aS'-554'
p5436
aS'74\r\n'
p5437
aa(lp5438
S'-1'
p5439
ag32
aS'-561'
p5440
aS'75\r\n'
p5441
aa(lp5442
g7
aS'-4'
p5443
aS'-554'
p5444
aS'73\r\n'
p5445
aa(lp5446
g105
aS'-15'
p5447
aS'-550'
p5448
aS'74\r\n'
p5449
aa(lp5450
g100
aS'-18'
p5451
aS'-550'
p5452
aS'71\r\n'
p5453
aa(lp5454
g100
aS'-18'
p5455
aS'-553'
p5456
aS'76\r\n'
p5457
aa(lp5458
g32
aS'-12'
p5459
aS'-559'
p5460
aS'73\r\n'
p5461
aa(lp5462
g7
aS'-2'
p5463
aS'-565'
p5464
aS'71\r\n'
p5465
aa(lp5466
g26
aS'12'
p5467
aS'-565'
p5468
aS'74\r\n'
p5469
aa(lp5470
S'-4'
p5471
aS'19'
p5472
aS'-566'
p5473
aS'73\r\n'
p5474
aa(lp5475
S'-5'
p5476
aS'18'
p5477
aS'-554'
p5478
aS'76\r\n'
p5479
aa(lp5480
S'-7'
p5481
aS'16'
p5482
aS'-549'
p5483
aS'76\r\n'
p5484
aa(lp5485
S'-7'
p5486
aS'10'
p5487
aS'-555'
p5488
aS'72\r\n'
p5489
aa(lp5490
S'-4'
p5491
ag7
aS'-558'
p5492
aS'75\r\n'
p5493
aa(lp5494
g153
aS'-3'
p5495
aS'-557'
p5496
aS'73\r\n'
p5497
aa(lp5498
g11
aS'-7'
p5499
aS'-560'
p5500
aS'75\r\n'
p5501
aa(lp5502
g11
aS'-7'
p5503
aS'-562'
p5504
aS'76\r\n'
p5505
aa(lp5506
S'-4'
p5507
aS'-11'
p5508
aS'-567'
p5509
aS'72\r\n'
p5510
aa(lp5511
S'-1'
p5512
aS'-4'
p5513
aS'-564'
p5514
aS'73\r\n'
p5515
aa(lp5516
S'-2'
p5517
ag11
aS'-560'
p5518
aS'72\r\n'
p5519
aa(lp5520
S'-3'
p5521
ag7
aS'-569'
p5522
aS'76\r\n'
p5523
aa(lp5524
S'-4'
p5525
ag100
aS'-566'
p5526
aS'74\r\n'
p5527
aa(lp5528
S'-7'
p5529
aS'12'
p5530
aS'-554'
p5531
aS'72\r\n'
p5532
aa(lp5533
g26
aS'17'
p5534
aS'-557'
p5535
aS'71\r\n'
p5536
aa(lp5537
S'-1'
p5538
aS'10'
p5539
aS'-556'
p5540
aS'73\r\n'
p5541
aa(lp5542
S'-4'
p5543
ag21
aS'-557'
p5544
aS'71\r\n'
p5545
aa(lp5546
g7
ag7
aS'-565'
p5547
aS'72\r\n'
p5548
aa(lp5549
g32
aS'-8'
p5550
aS'-562'
p5551
aS'72\r\n'
p5552
aa(lp5553
g100
aS'-11'
p5554
aS'-563'
p5555
aS'72\r\n'
p5556
aa(lp5557
g100
aS'-7'
p5558
aS'-554'
p5559
aS'73\r\n'
p5560
aa(lp5561
g32
aS'-8'
p5562
aS'-568'
p5563
aS'76\r\n'
p5564
aa(lp5565
g11
aS'-4'
p5566
aS'-571'
p5567
aS'72\r\n'
p5568
aa(lp5569
S'-3'
p5570
ag11
aS'-572'
p5571
aS'72\r\n'
p5572
aa(lp5573
S'-3'
p5574
ag16
aS'-566'
p5575
aS'71\r\n'
p5576
aa(lp5577
g11
aS'15'
p5578
aS'-570'
p5579
aS'76\r\n'
p5580
aa(lp5581
g26
ag372
aS'-571'
p5582
aS'76\r\n'
p5583
aa(lp5584
g26
ag32
aS'-566'
p5585
aS'73\r\n'
p5586
aa(lp5587
S'-1'
p5588
ag26
aS'-568'
p5589
aS'76\r\n'
p5590
aa(lp5591
g7
aS'-9'
p5592
aS'-566'
p5593
aS'72\r\n'
p5594
aa(lp5595
S'-1'
p5596
aS'-8'
p5597
aS'-566'
p5598
aS'71\r\n'
p5599
aa(lp5600
g7
aS'-4'
p5601
aS'-568'
p5602
aS'76\r\n'
p5603
aa(lp5604
S'-2'
p5605
ag16
aS'-559'
p5606
aS'71\r\n'
p5607
aa(lp5608
S'-4'
p5609
ag21
aS'-562'
p5610
aS'72\r\n'
p5611
aa(lp5612
S'-3'
p5613
aS'11'
p5614
aS'-561'
p5615
aS'73\r\n'
p5616
aa(lp5617
g26
ag105
aS'-555'
p5618
aS'76\r\n'
p5619
aa(lp5620
S'-3'
p5621
ag105
aS'-558'
p5622
aS'76\r\n'
p5623
aa(lp5624
S'-1'
p5625
ag32
aS'-562'
p5626
aS'71\r\n'
p5627
aa(lp5628
S'-1'
p5629
aS'-6'
p5630
aS'-557'
p5631
aS'71\r\n'
p5632
aa(lp5633
g26
aS'-12'
p5634
aS'-564'
p5635
aS'76\r\n'
p5636
aa(lp5637
g32
aS'-13'
p5638
aS'-568'
p5639
aS'76\r\n'
p5640
aa(lp5641
g100
aS'-14'
p5642
aS'-565'
p5643
aS'73\r\n'
p5644
aa(lp5645
g32
aS'-1'
p5646
aS'-566'
p5647
aS'75\r\n'
p5648
aa(lp5649
g153
ag100
aS'-562'
p5650
aS'75\r\n'
p5651
aa(lp5652
S'-2'
p5653
aS'11'
p5654
aS'-558'
p5655
aS'72\r\n'
p5656
aa(lp5657
S'-3'
p5658
aS'14'
p5659
aS'-554'
p5660
aS'73\r\n'
p5661
aa(lp5662
S'-1'
p5663
ag21
aS'-562'
p5664
aS'72\r\n'
p5665
aa(lp5666
S'-2'
p5667
aS'10'
p5668
aS'-554'
p5669
aS'76\r\n'
p5670
aa(lp5671
S'-1'
p5672
ag100
aS'-558'
p5673
aS'71\r\n'
p5674
aa(lp5675
g26
ag11
aS'-565'
p5676
aS'74\r\n'
p5677
aa(lp5678
g26
aS'-3'
p5679
aS'-557'
p5680
aS'74\r\n'
p5681
aa(lp5682
g105
aS'-6'
p5683
aS'-564'
p5684
aS'76\r\n'
p5685
aa(lp5686
g16
aS'-12'
p5687
aS'-561'
p5688
aS'76\r\n'
p5689
aa(lp5690
g3465
aS'-554'
p5691
aS'74\r\n'
p5692
aa(lp5693
S'-2'
p5694
ag153
aS'-561'
p5695
aS'74\r\n'
p5696
aa(lp5697
S'-1'
p5698
ag16
aS'-559'
p5699
aS'74\r\n'
p5700
aa(lp5701
g11
ag100
aS'-568'
p5702
aS'71\r\n'
p5703
aa(lp5704
S'-1'
p5705
ag153
aS'-570'
p5706
aS'74\r\n'
p5707
aa(lp5708
S'-2'
p5709
ag26
aS'-560'
p5710
aS'76\r\n'
p5711
aa(lp5712
S'-3'
p5713
ag7
aS'-567'
p5714
aS'72\r\n'
p5715
aa(lp5716
S'-3'
p5717
ag105
aS'-565'
p5718
aS'71\r\n'
p5719
aa(lp5720
g26
ag105
aS'-566'
p5721
aS'75\r\n'
p5722
aa(lp5723
S'-3'
p5724
ag7
aS'-575'
p5725
aS'72\r\n'
p5726
aa(lp5727
S'-2'
p5728
ag100
aS'-576'
p5729
aS'74\r\n'
p5730
aa(lp5731
S'-3'
p5732
aS'11'
p5733
aS'-579'
p5734
aS'76\r\n'
p5735
aa(lp5736
g26
aS'10'
p5737
aS'-566'
p5738
aS'75\r\n'
p5739
aa(lp5740
S'-3'
p5741
ag153
aS'-568'
p5742
aS'73\r\n'
p5743
aa(lp5744
S'-10'
p5745
ag26
aS'-564'
p5746
aS'71\r\n'
p5747
aa(lp5748
S'-7'
p5749
ag7
aS'-570'
p5750
aS'71\r\n'
p5751
aa(lp5752
S'-4'
p5753
aS'-3'
p5754
aS'-571'
p5755
aS'74\r\n'
p5756
aa(lp5757
S'-4'
p5758
aS'-3'
p5759
aS'-569'
p5760
aS'72\r\n'
p5761
aa(lp5762
S'-4'
p5763
aS'-6'
p5764
aS'-566'
p5765
aS'74\r\n'
p5766
aa(lp5767
g26
aS'-10'
p5768
aS'-570'
p5769
aS'75\r\n'
p5770
aa(lp5771
g7
aS'-7'
p5772
aS'-568'
p5773
aS'74\r\n'
p5774
aa(lp5775
g26
aS'-2'
p5776
aS'-562'
p5777
aS'71\r\n'
p5778
aa(lp5779
S'-2'
p5780
ag26
aS'-557'
p5781
aS'73\r\n'
p5782
aa(lp5783
S'-1'
p5784
ag11
aS'-560'
p5785
aS'72\r\n'
p5786
aa(lp5787
S'-6'
p5788
ag100
aS'-564'
p5789
aS'74\r\n'
p5790
aa(lp5791
S'-7'
p5792
ag16
aS'-568'
p5793
aS'75\r\n'
p5794
aa(lp5795
S'-2'
p5796
ag32
aS'-566'
p5797
aS'73\r\n'
p5798
aa(lp5799
S'-2'
p5800
aS'-2'
p5801
aS'-556'
p5802
aS'74\r\n'
p5803
aa(lp5804
S'-3'
p5805
ag26
aS'-554'
p5806
aS'73\r\n'
p5807
aa(lp5808
S'-7'
p5809
aS'-3'
p5810
aS'-554'
p5811
aS'74\r\n'
p5812
aa(lp5813
S'-3'
p5814
aS'-1'
p5815
aS'-553'
p5816
aS'73\r\n'
p5817
aa(lp5818
S'-1'
p5819
ag26
aS'-554'
p5820
aS'72\r\n'
p5821
aa(lp5822
S'-5'
p5823
ag153
aS'-559'
p5824
aS'74\r\n'
p5825
aa(lp5826
S'-2'
p5827
ag16
aS'-559'
p5828
aS'71\r\n'
p5829
aa(lp5830
S'-3'
p5831
ag153
aS'-555'
p5832
aS'76\r\n'
p5833
aa(lp5834
S'-2'
p5835
ag11
aS'-553'
p5836
aS'75\r\n'
p5837
aa(lp5838
S'-7'
p5839
ag26
aS'-545'
p5840
aS'76\r\n'
p5841
aa(lp5842
S'-5'
p5843
aS'-2'
p5844
aS'-559'
p5845
aS'72\r\n'
p5846
aa(lp5847
S'-4'
p5848
ag7
aS'-562'
p5849
aS'71\r\n'
p5850
aa(lp5851
S'-3'
p5852
ag16
aS'-562'
p5853
aS'73\r\n'
p5854
aa(lp5855
S'-2'
p5856
ag32
aS'-557'
p5857
aS'72\r\n'
p5858
aa(lp5859
S'-2'
p5860
ag100
aS'-552'
p5861
aS'76\r\n'
p5862
aa(lp5863
S'-5'
p5864
ag100
aS'-555'
p5865
aS'75\r\n'
p5866
aa(lp5867
S'-6'
p5868
aS'-1'
p5869
aS'-566'
p5870
aS'76\r\n'
p5871
aa(lp5872
S'-1'
p5873
aS'-5'
p5874
aS'-560'
p5875
aS'76\r\n'
p5876
aa(lp5877
S'-2'
p5878
aS'-6'
p5879
aS'-557'
p5880
aS'72\r\n'
p5881
aa(lp5882
S'-4'
p5883
aS'-5'
p5884
aS'-558'
p5885
aS'73\r\n'
p5886
aa(lp5887
S'-5'
p5888
aS'-5'
p5889
aS'-565'
p5890
aS'76\r\n'
p5891
aa(lp5892
S'-2'
p5893
ag26
aS'-568'
p5894
aS'75\r\n'
p5895
aa(lp5896
S'-8'
p5897
ag26
aS'-564'
p5898
aS'75\r\n'
p5899
aa(lp5900
S'-7'
p5901
ag100
aS'-560'
p5902
aS'76\r\n'
p5903
aa(lp5904
S'-8'
p5905
ag153
aS'-563'
p5906
aS'74\r\n'
p5907
aa(lp5908
S'-10'
p5909
ag11
aS'-563'
p5910
aS'74\r\n'
p5911
aa(lp5912
S'-8'
p5913
ag26
aS'-565'
p5914
aS'73\r\n'
p5915
aa(lp5916
S'-10'
p5917
ag26
aS'-556'
p5918
aS'75\r\n'
p5919
aa(lp5920
S'-11'
p5921
ag16
aS'-554'
p5922
aS'72\r\n'
p5923
aa(lp5924
S'-6'
p5925
ag16
aS'-553'
p5926
aS'74\r\n'
p5927
aa(lp5928
g26
ag153
aS'-546'
p5929
aS'76\r\n'
p5930
aa(lp5931
S'-3'
p5932
ag7
aS'-547'
p5933
aS'72\r\n'
p5934
aa(lp5935
S'-8'
p5936
ag11
aS'-553'
p5937
aS'73\r\n'
p5938
aa(lp5939
S'-12'
p5940
ag153
aS'-559'
p5941
aS'75\r\n'
p5942
aa(lp5943
S'-12'
p5944
ag7
aS'-563'
p5945
aS'76\r\n'
p5946
aa(lp5947
S'-8'
p5948
ag153
aS'-566'
p5949
aS'71\r\n'
p5950
aa(lp5951
S'-7'
p5952
ag32
aS'-566'
p5953
aS'73\r\n'
p5954
aa(lp5955
S'-10'
p5956
ag105
aS'-561'
p5957
aS'74\r\n'
p5958
aa(lp5959
S'-8'
p5960
ag153
aS'-557'
p5961
aS'76\r\n'
p5962
aa(lp5963
S'-5'
p5964
ag153
aS'-560'
p5965
aS'71\r\n'
p5966
aa(lp5967
S'-5'
p5968
ag153
aS'-565'
p5969
aS'74\r\n'
p5970
aa(lp5971
S'-6'
p5972
ag153
aS'-573'
p5973
aS'75\r\n'
p5974
aa(lp5975
S'-8'
p5976
aS'10'
p5977
aS'-577'
p5978
aS'74\r\n'
p5979
aa(lp5980
S'-9'
p5981
aS'15'
p5982
aS'-573'
p5983
aS'71\r\n'
p5984
aa(lp5985
S'-7'
p5986
ag105
aS'-572'
p5987
aS'76\r\n'
p5988
aa(lp5989
S'-3'
p5990
ag26
aS'-562'
p5991
aS'75\r\n'
p5992
aa(lp5993
S'-1'
p5994
aS'-1'
p5995
aS'-564'
p5996
aS'76\r\n'
p5997
aa(lp5998
S'-2'
p5999
aS'-7'
p6000
aS'-560'
p6001
aS'74\r\n'
p6002
aa(lp6003
g26
aS'-8'
p6004
aS'-563'
p6005
aS'73\r\n'
p6006
aa(lp6007
S'-1'
p6008
aS'-11'
p6009
aS'-563'
p6010
aS'75\r\n'
p6011
aa(lp6012
S'-3'
p6013
aS'-6'
p6014
aS'-562'
p6015
aS'75\r\n'
p6016
aa(lp6017
g7
aS'-13'
p6018
aS'-560'
p6019
aS'73\r\n'
p6020
aa(lp6021
g32
aS'-14'
p6022
aS'-562'
p6023
aS'76\r\n'
p6024
aa(lp6025
g7
aS'-13'
p6026
aS'-561'
p6027
aS'71\r\n'
p6028
aa(lp6029
S'-2'
p6030
aS'-2'
p6031
aS'-570'
p6032
aS'72\r\n'
p6033
aa(lp6034
S'-6'
p6035
aS'10'
p6036
aS'-567'
p6037
aS'76\r\n'
p6038
aa(lp6039
S'-9'
p6040
aS'15'
p6041
aS'-561'
p6042
aS'73\r\n'
p6043
aa(lp6044
S'-10'
p6045
aS'23'
p6046
aS'-562'
p6047
aS'71\r\n'
p6048
aa(lp6049
S'-13'
p6050
aS'18'
p6051
aS'-562'
p6052
aS'75\r\n'
p6053
aa(lp6054
S'-10'
p6055
aS'18'
p6056
aS'-564'
p6057
aS'75\r\n'
p6058
aa(lp6059
S'-5'
p6060
aS'12'
p6061
aS'-559'
p6062
aS'73\r\n'
p6063
aa(lp6064
S'-9'
p6065
ag100
aS'-551'
p6066
aS'74\r\n'
p6067
aa(lp6068
S'-3'
p6069
aS'-1'
p6070
aS'-557'
p6071
aS'76\r\n'
p6072
aa(lp6073
S'-2'
p6074
aS'-10'
p6075
aS'-559'
p6076
aS'73\r\n'
p6077
aa(lp6078
g7
aS'-19'
p6079
aS'-553'
p6080
aS'71\r\n'
p6081
aa(lp6082
g26
aS'-22'
p6083
aS'-556'
p6084
aS'73\r\n'
p6085
aa(lp6086
S'-1'
p6087
aS'-16'
p6088
aS'-554'
p6089
aS'73\r\n'
p6090
aa(lp6091
S'-9'
p6092
ag7
aS'-554'
p6093
aS'74\r\n'
p6094
aa(lp6095
S'-11'
p6096
ag16
aS'-555'
p6097
aS'71\r\n'
p6098
aa(lp6099
S'-12'
p6100
aS'16'
p6101
aS'-558'
p6102
aS'75\r\n'
p6103
aa(lp6104
S'-13'
p6105
aS'23'
p6106
aS'-573'
p6107
aS'76\r\n'
p6108
aa(lp6109
S'-12'
p6110
aS'18'
p6111
aS'-568'
p6112
aS'75\r\n'
p6113
aa(lp6114
S'-7'
p6115
ag372
aS'-568'
p6116
aS'72\r\n'
p6117
aa(lp6118
S'-5'
p6119
ag153
aS'-565'
p6120
aS'73\r\n'
p6121
aa(lp6122
S'-3'
p6123
aS'-2'
p6124
aS'-566'
p6125
aS'75\r\n'
p6126
aa(lp6127
S'-3'
p6128
ag7
aS'-568'
p6129
aS'73\r\n'
p6130
aa(lp6131
S'-12'
p6132
ag105
aS'-567'
p6133
aS'71\r\n'
p6134
aa(lp6135
S'-14'
p6136
aS'17'
p6137
aS'-564'
p6138
aS'73\r\n'
p6139
aa(lp6140
S'-14'
p6141
aS'20'
p6142
aS'-563'
p6143
aS'74\r\n'
p6144
aa(lp6145
S'-17'
p6146
aS'22'
p6147
aS'-561'
p6148
aS'73\r\n'
p6149
aa(lp6150
S'-11'
p6151
aS'14'
p6152
aS'-553'
p6153
aS'75\r\n'
p6154
aa(lp6155
S'-8'
p6156
ag105
aS'-553'
p6157
aS'73\r\n'
p6158
aa(lp6159
S'-2'
p6160
aS'-2'
p6161
aS'-550'
p6162
aS'75\r\n'
p6163
aa(lp6164
g26
aS'-11'
p6165
aS'-558'
p6166
aS'72\r\n'
p6167
aa(lp6168
g32
aS'-17'
p6169
aS'-564'
p6170
aS'76\r\n'
p6171
aa(lp6172
g26
aS'-11'
p6173
aS'-569'
p6174
aS'75\r\n'
p6175
aa(lp6176
S'-4'
p6177
aS'-8'
p6178
aS'-570'
p6179
aS'75\r\n'
p6180
aa(lp6181
g26
aS'-1'
p6182
aS'-570'
p6183
aS'76\r\n'
p6184
aa(lp6185
g26
aS'-2'
p6186
aS'-572'
p6187
aS'73\r\n'
p6188
aa(lp6189
S'-5'
p6190
aS'-2'
p6191
aS'-566'
p6192
aS'72\r\n'
p6193
aa(lp6194
S'-6'
p6195
aS'-7'
p6196
aS'-562'
p6197
aS'72\r\n'
p6198
aa(lp6199
S'-2'
p6200
aS'-8'
p6201
aS'-562'
p6202
aS'74\r\n'
p6203
aa(lp6204
g32
aS'-11'
p6205
aS'-565'
p6206
aS'73\r\n'
p6207
aa(lp6208
g105
aS'-13'
p6209
aS'-559'
p6210
aS'74\r\n'
p6211
aa(lp6212
g105
aS'-17'
p6213
aS'-561'
p6214
aS'76\r\n'
p6215
aa(lp6216
S'11'
p6217
aS'-17'
p6218
aS'-565'
p6219
aS'73\r\n'
p6220
aa(lp6221
g32
aS'-9'
p6222
aS'-565'
p6223
aS'73\r\n'
p6224
aa(lp6225
g153
aS'-7'
p6226
aS'-559'
p6227
aS'72\r\n'
p6228
aa(lp6229
S'-2'
p6230
aS'-9'
p6231
aS'-562'
p6232
aS'73\r\n'
p6233
aa(lp6234
g7
aS'-14'
p6235
aS'-562'
p6236
aS'72\r\n'
p6237
aa(lp6238
S'-2'
p6239
aS'-10'
p6240
aS'-556'
p6241
aS'72\r\n'
p6242
aa(lp6243
S'-5'
p6244
aS'-2'
p6245
aS'-550'
p6246
aS'75\r\n'
p6247
aa(lp6248
S'-15'
p6249
aS'11'
p6250
aS'-551'
p6251
aS'76\r\n'
p6252
aa(lp6253
S'-16'
p6254
aS'22'
p6255
aS'-558'
p6256
aS'75\r\n'
p6257
aa(lp6258
S'-16'
p6259
aS'31'
p6260
aS'-555'
p6261
aS'72\r\n'
p6262
aa(lp6263
S'-13'
p6264
aS'37'
p6265
aS'-553'
p6266
aS'74\r\n'
p6267
aa(lp6268
S'-12'
p6269
aS'24'
p6270
aS'-559'
p6271
aS'71\r\n'
p6272
aa(lp6273
S'-8'
p6274
aS'10'
p6275
aS'-565'
p6276
aS'71\r\n'
p6277
aa(lp6278
S'-4'
p6279
ag26
aS'-566'
p6280
aS'71\r\n'
p6281
aa(lp6282
S'-1'
p6283
aS'-11'
p6284
aS'-560'
p6285
aS'74\r\n'
p6286
aa(lp6287
S'-1'
p6288
aS'-17'
p6289
aS'-555'
p6290
aS'74\r\n'
p6291
aa(lp6292
g7
aS'-14'
p6293
aS'-554'
p6294
aS'72\r\n'
p6295
aa(lp6296
S'-1'
p6297
aS'-5'
p6298
aS'-551'
p6299
aS'72\r\n'
p6300
aa(lp6301
S'-2'
p6302
ag372
aS'-555'
p6303
aS'72\r\n'
p6304
aa(lp6305
S'-9'
p6306
aS'15'
p6307
aS'-553'
p6308
aS'72\r\n'
p6309
aa(lp6310
S'-16'
p6311
aS'19'
p6312
aS'-547'
p6313
aS'73\r\n'
p6314
aa(lp6315
S'-9'
p6316
aS'13'
p6317
aS'-550'
p6318
aS'72\r\n'
p6319
aa(lp6320
S'-10'
p6321
ag21
aS'-565'
p6322
aS'76\r\n'
p6323
aa(lp6324
S'-7'
p6325
ag11
aS'-566'
p6326
aS'74\r\n'
p6327
aa(lp6328
S'-7'
p6329
aS'-2'
p6330
aS'-561'
p6331
aS'71\r\n'
p6332
aa(lp6333
S'-4'
p6334
aS'-5'
p6335
aS'-562'
p6336
aS'76\r\n'
p6337
aa(lp6338
S'-6'
p6339
aS'-8'
p6340
aS'-569'
p6341
aS'71\r\n'
p6342
aa(lp6343
S'-9'
p6344
aS'-6'
p6345
aS'-570'
p6346
aS'74\r\n'
p6347
aa(lp6348
S'-8'
p6349
aS'-2'
p6350
aS'-578'
p6351
aS'76\r\n'
p6352
aa(lp6353
S'-12'
p6354
ag7
aS'-588'
p6355
aS'71\r\n'
p6356
aa(lp6357
S'-8'
p6358
aS'-1'
p6359
aS'-580'
p6360
aS'73\r\n'
p6361
aa(lp6362
S'-5'
p6363
ag26
aS'-569'
p6364
aS'71\r\n'
p6365
aa(lp6366
S'-6'
p6367
ag16
aS'-559'
p6368
aS'74\r\n'
p6369
aa(lp6370
S'-4'
p6371
ag105
aS'-566'
p6372
aS'72\r\n'
p6373
aa(lp6374
S'-4'
p6375
ag105
aS'-552'
p6376
aS'75\r\n'
p6377
aa(lp6378
S'-10'
p6379
aS'14'
p6380
aS'-554'
p6381
aS'71\r\n'
p6382
aa(lp6383
S'-10'
p6384
ag21
aS'-554'
p6385
aS'76\r\n'
p6386
aa(lp6387
S'-6'
p6388
ag16
aS'-554'
p6389
aS'76\r\n'
p6390
aa(lp6391
S'-2'
p6392
aS'-2'
p6393
aS'-560'
p6394
aS'74\r\n'
p6395
aa(lp6396
g26
aS'-10'
p6397
aS'-569'
p6398
aS'73\r\n'
p6399
aa(lp6400
g7
aS'-11'
p6401
aS'-570'
p6402
aS'71\r\n'
p6403
aa(lp6404
g11
aS'-9'
p6405
aS'-560'
p6406
aS'72\r\n'
p6407
aa(lp6408
g11
aS'-8'
p6409
aS'-566'
p6410
aS'74\r\n'
p6411
aa(lp6412
S'-3'
p6413
ag26
aS'-569'
p6414
aS'74\r\n'
p6415
aa(lp6416
S'-6'
p6417
aS'12'
p6418
aS'-577'
p6419
aS'75\r\n'
p6420
aa(lp6421
S'-10'
p6422
aS'18'
p6423
aS'-573'
p6424
aS'71\r\n'
p6425
aa(lp6426
S'-10'
p6427
aS'14'
p6428
aS'-562'
p6429
aS'72\r\n'
p6430
aa(lp6431
S'-3'
p6432
ag16
aS'-557'
p6433
aS'76\r\n'
p6434
aa(lp6435
S'-1'
p6436
ag153
aS'-548'
p6437
aS'76\r\n'
p6438
aa(lp6439
S'-2'
p6440
aS'-2'
p6441
aS'-544'
p6442
aS'74\r\n'
p6443
aa(lp6444
S'-6'
p6445
aS'-2'
p6446
aS'-552'
p6447
aS'73\r\n'
p6448
aa(lp6449
S'-5'
p6450
aS'-3'
p6451
aS'-558'
p6452
aS'76\r\n'
p6453
aa(lp6454
S'-4'
p6455
aS'-11'
p6456
aS'-563'
p6457
aS'72\r\n'
p6458
aa(lp6459
S'-2'
p6460
aS'-11'
p6461
aS'-552'
p6462
aS'73\r\n'
p6463
aa(lp6464
S'-1'
p6465
aS'-6'
p6466
aS'-551'
p6467
aS'74\r\n'
p6468
aa(lp6469
S'-4'
p6470
ag153
aS'-555'
p6471
aS'75\r\n'
p6472
aa(lp6473
S'-1'
p6474
ag26
aS'-556'
p6475
aS'76\r\n'
p6476
aa(lp6477
g7
ag105
aS'-555'
p6478
aS'72\r\n'
p6479
aa(lp6480
S'-3'
p6481
ag7
aS'-554'
p6482
aS'71\r\n'
p6483
aa(lp6484
S'-6'
p6485
ag32
aS'-555'
p6486
aS'74\r\n'
p6487
aa(lp6488
S'-7'
p6489
ag100
aS'-566'
p6490
aS'71\r\n'
p6491
aa(lp6492
S'-5'
p6493
ag32
aS'-564'
p6494
aS'76\r\n'
p6495
aa(lp6496
S'-4'
p6497
ag26
aS'-561'
p6498
aS'71\r\n'
p6499
aa(lp6500
S'-6'
p6501
aS'-1'
p6502
aS'-568'
p6503
aS'76\r\n'
p6504
aa(lp6505
g26
aS'-7'
p6506
aS'-575'
p6507
aS'72\r\n'
p6508
aa(lp6509
g105
aS'-11'
p6510
aS'-579'
p6511
aS'72\r\n'
p6512
aa(lp6513
g105
aS'-9'
p6514
aS'-576'
p6515
aS'72\r\n'
p6516
aa(lp6517
g26
aS'-6'
p6518
aS'-572'
p6519
aS'71\r\n'
p6520
aa(lp6521
g26
aS'-4'
p6522
aS'-566'
p6523
aS'75\r\n'
p6524
aa(lp6525
S'-3'
p6526
ag26
aS'-562'
p6527
aS'76\r\n'
p6528
aa(lp6529
S'-2'
p6530
ag26
aS'-566'
p6531
aS'72\r\n'
p6532
aa(lp6533
S'-3'
p6534
ag26
aS'-564'
p6535
aS'73\r\n'
p6536
aa(lp6537
S'-2'
p6538
ag16
aS'-562'
p6539
aS'73\r\n'
p6540
aa(lp6541
S'-3'
p6542
ag32
aS'-564'
p6543
aS'71\r\n'
p6544
aa(lp6545
S'-2'
p6546
ag16
aS'-567'
p6547
aS'75\r\n'
p6548
aa(lp6549
S'-3'
p6550
ag11
aS'-561'
p6551
aS'72\r\n'
p6552
aa(lp6553
g26
aS'-2'
p6554
aS'-554'
p6555
aS'71\r\n'
p6556
aa(lp6557
g26
aS'-4'
p6558
aS'-560'
p6559
aS'75\r\n'
p6560
aa(lp6561
g26
aS'-7'
p6562
aS'-571'
p6563
aS'76\r\n'
p6564
aa(lp6565
S'-1'
p6566
aS'-3'
p6567
aS'-564'
p6568
aS'75\r\n'
p6569
aa(lp6570
S'-4'
p6571
aS'-2'
p6572
aS'-564'
p6573
aS'75\r\n'
p6574
aa(lp6575
S'-3'
p6576
ag26
aS'-565'
p6577
aS'72\r\n'
p6578
aa(lp6579
S'-4'
p6580
ag11
aS'-566'
p6581
aS'73\r\n'
p6582
aa(lp6583
S'-6'
p6584
ag11
aS'-555'
p6585
aS'72\r\n'
p6586
aa(lp6587
S'-8'
p6588
ag32
aS'-553'
p6589
aS'72\r\n'
p6590
aa(lp6591
S'-4'
p6592
ag7
aS'-562'
p6593
aS'76\r\n'
p6594
aa(lp6595
S'-1'
p6596
ag26
aS'-558'
p6597
aS'71\r\n'
p6598
aa(lp6599
g7
ag7
aS'-553'
p6600
aS'76\r\n'
p6601
aa(lp6602
g7
aS'-4'
p6603
aS'-560'
p6604
aS'72\r\n'
p6605
aa(lp6606
g7
aS'-5'
p6607
aS'-561'
p6608
aS'72\r\n'
p6609
aa(lp6610
S'-2'
p6611
ag32
aS'-573'
p6612
aS'71\r\n'
p6613
aa(lp6614
S'-8'
p6615
ag105
aS'-561'
p6616
aS'76\r\n'
p6617
aa(lp6618
S'-7'
p6619
ag16
aS'-557'
p6620
aS'76\r\n'
p6621
aa(lp6622
S'-3'
p6623
ag372
aS'-552'
p6624
aS'71\r\n'
p6625
aa(lp6626
S'-5'
p6627
ag100
aS'-558'
p6628
aS'72\r\n'
p6629
aa(lp6630
S'-5'
p6631
aS'-1'
p6632
aS'-558'
p6633
aS'76\r\n'
p6634
aa(lp6635
S'-5'
p6636
aS'-2'
p6637
aS'-559'
p6638
aS'72\r\n'
p6639
aa(lp6640
g26
aS'-5'
p6641
aS'-558'
p6642
aS'74\r\n'
p6643
aa(lp6644
S'-2'
p6645
aS'-8'
p6646
aS'-563'
p6647
aS'73\r\n'
p6648
aa(lp6649
S'-1'
p6650
aS'-5'
p6651
aS'-564'
p6652
aS'74\r\n'
p6653
aa(lp6654
S'-3'
p6655
ag26
aS'-563'
p6656
aS'74\r\n'
p6657
aa(lp6658
S'-2'
p6659
aS'-2'
p6660
aS'-562'
p6661
aS'74\r\n'
p6662
aa(lp6663
S'-4'
p6664
ag7
aS'-566'
p6665
aS'74\r\n'
p6666
aa(lp6667
S'-7'
p6668
ag7
aS'-570'
p6669
aS'74\r\n'
p6670
aa(lp6671
S'-13'
p6672
ag100
aS'-570'
p6673
aS'74\r\n'
p6674
aa(lp6675
S'-10'
p6676
aS'10'
p6677
aS'-571'
p6678
aS'74\r\n'
p6679
aa(lp6680
S'-12'
p6681
aS'11'
p6682
aS'-572'
p6683
aS'75\r\n'
p6684
aa(lp6685
S'-6'
p6686
ag105
aS'-571'
p6687
aS'74\r\n'
p6688
aa(lp6689
S'-8'
p6690
ag100
aS'-562'
p6691
aS'72\r\n'
p6692
aa(lp6693
S'-8'
p6694
ag26
aS'-564'
p6695
aS'76\r\n'
p6696
aa(lp6697
S'-7'
p6698
aS'-1'
p6699
aS'-557'
p6700
aS'74\r\n'
p6701
aa(lp6702
S'-1'
p6703
aS'-1'
p6704
aS'-555'
p6705
aS'74\r\n'
p6706
aa(lp6707
g26
aS'-3'
p6708
aS'-546'
p6709
aS'75\r\n'
p6710
aa(lp6711
g26
aS'-6'
p6712
aS'-551'
p6713
aS'72\r\n'
p6714
aa(lp6715
g100
aS'-4'
p6716
aS'-557'
p6717
aS'75\r\n'
p6718
aa(lp6719
g105
ag26
aS'-559'
p6720
aS'72\r\n'
p6721
aa(lp6722
g7
ag32
aS'-558'
p6723
aS'74\r\n'
p6724
aa(lp6725
g32
ag11
aS'-555'
p6726
aS'76\r\n'
p6727
aa(lp6728
g7
ag100
aS'-550'
p6729
aS'71\r\n'
p6730
aa(lp6731
g7
ag153
aS'-547'
p6732
aS'72\r\n'
p6733
aa(lp6734
S'-2'
p6735
ag153
aS'-548'
p6736
aS'71\r\n'
p6737
aa(lp6738
g11
ag26
aS'-555'
p6739
aS'71\r\n'
p6740
aa(lp6741
g7
ag26
aS'-553'
p6742
aS'73\r\n'
p6743
aa(lp6744
g7
aS'-2'
p6745
aS'-555'
p6746
aS'75\r\n'
p6747
aa(lp6748
g7
aS'-2'
p6749
aS'-554'
p6750
aS'73\r\n'
p6751
aa(lp6752
g26
ag26
aS'-551'
p6753
aS'72\r\n'
p6754
aa(lp6755
S'-9'
p6756
ag26
aS'-557'
p6757
aS'76\r\n'
p6758
aa(lp6759
S'-8'
p6760
ag7
aS'-555'
p6761
aS'74\r\n'
p6762
aa(lp6763
S'-7'
p6764
ag26
aS'-559'
p6765
aS'75\r\n'
p6766
aa(lp6767
S'-4'
p6768
aS'-1'
p6769
aS'-564'
p6770
aS'72\r\n'
p6771
aa(lp6772
S'-4'
p6773
ag7
aS'-561'
p6774
aS'73\r\n'
p6775
aa(lp6776
S'-3'
p6777
ag26
aS'-561'
p6778
aS'71\r\n'
p6779
aa(lp6780
S'-4'
p6781
aS'-2'
p6782
aS'-556'
p6783
aS'73\r\n'
p6784
aa(lp6785
S'-6'
p6786
aS'-2'
p6787
aS'-559'
p6788
aS'74\r\n'
p6789
aa(lp6790
S'-7'
p6791
aS'-3'
p6792
aS'-560'
p6793
aS'72\r\n'
p6794
aa(lp6795
S'-4'
p6796
aS'-5'
p6797
aS'-559'
p6798
aS'73\r\n'
p6799
aa(lp6800
S'-1'
p6801
aS'-5'
p6802
aS'-562'
p6803
aS'72\r\n'
p6804
aa(lp6805
S'-2'
p6806
aS'-3'
p6807
aS'-555'
p6808
aS'72\r\n'
p6809
aa(lp6810
S'-2'
p6811
ag105
aS'-552'
p6812
aS'71\r\n'
p6813
aa(lp6814
S'-4'
p6815
ag21
aS'-562'
p6816
aS'76\r\n'
p6817
aa(lp6818
S'-2'
p6819
aS'13'
p6820
aS'-569'
p6821
aS'74\r\n'
p6822
aa(lp6823
S'-1'
p6824
ag153
aS'-562'
p6825
aS'73\r\n'
p6826
aa(lp6827
S'-3'
p6828
aS'-1'
p6829
aS'-556'
p6830
aS'72\r\n'
p6831
aa(lp6832
S'-5'
p6833
aS'-8'
p6834
aS'-556'
p6835
aS'76\r\n'
p6836
aa(lp6837
S'-6'
p6838
aS'-5'
p6839
aS'-566'
p6840
aS'74\r\n'
p6841
aa(lp6842
S'-4'
p6843
aS'-2'
p6844
aS'-566'
p6845
aS'72\r\n'
p6846
aa(lp6847
S'-9'
p6848
ag26
aS'-558'
p6849
aS'73\r\n'
p6850
aa(lp6851
S'-8'
p6852
ag32
aS'-561'
p6853
aS'76\r\n'
p6854
aa(lp6855
S'-9'
p6856
ag105
aS'-562'
p6857
aS'74\r\n'
p6858
aa(lp6859
S'-7'
p6860
ag21
aS'-557'
p6861
aS'76\r\n'
p6862
aa(lp6863
S'-6'
p6864
ag32
aS'-554'
p6865
aS'71\r\n'
p6866
aa(lp6867
S'-6'
p6868
ag7
aS'-557'
p6869
aS'76\r\n'
p6870
aa(lp6871
S'-5'
p6872
aS'-1'
p6873
aS'-557'
p6874
aS'74\r\n'
p6875
aa(lp6876
g7
aS'-4'
p6877
aS'-551'
p6878
aS'72\r\n'
p6879
aa(lp6880
g7
aS'-14'
p6881
aS'-561'
p6882
aS'74\r\n'
p6883
aa(lp6884
g26
aS'-16'
p6885
aS'-569'
p6886
aS'75\r\n'
p6887
aa(lp6888
g7
aS'-14'
p6889
aS'-562'
p6890
aS'74\r\n'
p6891
aa(lp6892
g153
aS'-5'
p6893
aS'-559'
p6894
aS'71\r\n'
p6895
aa(lp6896
g11
ag26
aS'-562'
p6897
aS'76\r\n'
p6898
aa(lp6899
S'-3'
p6900
ag32
aS'-563'
p6901
aS'72\r\n'
p6902
aa(lp6903
S'-9'
p6904
aS'11'
p6905
aS'-564'
p6906
aS'72\r\n'
p6907
aa(lp6908
S'-9'
p6909
aS'16'
p6910
aS'-568'
p6911
aS'73\r\n'
p6912
aa(lp6913
S'-2'
p6914
ag100
aS'-567'
p6915
aS'74\r\n'
p6916
aa(lp6917
S'-3'
p6918
ag26
aS'-562'
p6919
aS'74\r\n'
p6920
aa(lp6921
S'-3'
p6922
ag26
aS'-556'
p6923
aS'72\r\n'
p6924
aa(lp6925
g26
aS'-3'
p6926
aS'-564'
p6927
aS'72\r\n'
p6928
aa(lp6929
g7
aS'-9'
p6930
aS'-562'
p6931
aS'71\r\n'
p6932
aa(lp6933
S'-1'
p6934
aS'-11'
p6935
aS'-561'
p6936
aS'73\r\n'
p6937
aa(lp6938
g153
aS'-6'
p6939
aS'-567'
p6940
aS'75\r\n'
p6941
aa(lp6942
S'-1'
p6943
ag7
aS'-567'
p6944
aS'72\r\n'
p6945
aa(lp6946
g26
aS'11'
p6947
aS'-566'
p6948
aS'73\r\n'
p6949
aa(lp6950
S'-6'
p6951
aS'14'
p6952
aS'-563'
p6953
aS'76\r\n'
p6954
aa(lp6955
S'-2'
p6956
aS'17'
p6957
aS'-559'
p6958
aS'71\r\n'
p6959
aa(lp6960
S'-1'
p6961
aS'15'
p6962
aS'-564'
p6963
aS'71\r\n'
p6964
aa(lp6965
S'-5'
p6966
aS'16'
p6967
aS'-567'
p6968
aS'72\r\n'
p6969
aa(lp6970
S'-1'
p6971
aS'13'
p6972
aS'-567'
p6973
aS'72\r\n'
p6974
aa(lp6975
g26
ag153
aS'-562'
p6976
aS'73\r\n'
p6977
aa(lp6978
S'-1'
p6979
ag26
aS'-567'
p6980
aS'73\r\n'
p6981
aa(lp6982
g11
aS'-7'
p6983
aS'-566'
p6984
aS'71\r\n'
p6985
aa(lp6986
g11
aS'-10'
p6987
aS'-561'
p6988
aS'73\r\n'
p6989
aa(lp6990
g11
aS'-2'
p6991
aS'-562'
p6992
aS'75\r\n'
p6993
aa(lp6994
S'-1'
p6995
ag26
aS'-566'
p6996
aS'71\r\n'
p6997
aa(lp6998
S'-5'
p6999
ag32
aS'-569'
p7000
aS'71\r\n'
p7001
aa(lp7002
S'-6'
p7003
ag105
aS'-558'
p7004
aS'75\r\n'
p7005
aa(lp7006
S'-3'
p7007
ag153
aS'-551'
p7008
aS'76\r\n'
p7009
aa(lp7010
S'-7'
p7011
ag100
aS'-556'
p7012
aS'76\r\n'
p7013
aa(lp7014
g26
ag11
aS'-549'
p7015
aS'75\r\n'
p7016
aa(lp7017
g26
ag11
aS'-557'
p7018
aS'71\r\n'
p7019
aa(lp7020
S'-2'
p7021
aS'-3'
p7022
aS'-560'
p7023
aS'75\r\n'
p7024
aa(lp7025
g26
aS'-8'
p7026
aS'-560'
p7027
aS'76\r\n'
p7028
aa(lp7029
g11
aS'-3'
p7030
aS'-567'
p7031
aS'74\r\n'
p7032
aa(lp7033
g100
aS'-1'
p7034
aS'-571'
p7035
aS'76\r\n'
p7036
aa(lp7037
g26
ag32
aS'-570'
p7038
aS'71\r\n'
p7039
aa(lp7040
S'-6'
p7041
ag372
aS'-576'
p7042
aS'75\r\n'
p7043
aa(lp7044
S'-8'
p7045
aS'10'
p7046
aS'-571'
p7047
aS'73\r\n'
p7048
aa(lp7049
S'-6'
p7050
ag100
aS'-558'
p7051
aS'74\r\n'
p7052
aa(lp7053
S'-4'
p7054
aS'-1'
p7055
aS'-549'
p7056
aS'74\r\n'
p7057
aa(lp7058
g26
ag7
aS'-541'
p7059
aS'72\r\n'
p7060
aa(lp7061
S'-5'
p7062
aS'-1'
p7063
aS'-543'
p7064
aS'75\r\n'
p7065
aa(lp7066
S'-2'
p7067
aS'-4'
p7068
aS'-545'
p7069
aS'71\r\n'
p7070
aa(lp7071
S'-5'
p7072
aS'-4'
p7073
aS'-559'
p7074
aS'71\r\n'
p7075
aa(lp7076
S'-6'
p7077
aS'-3'
p7078
aS'-557'
p7079
aS'71\r\n'
p7080
aa(lp7081
S'-5'
p7082
aS'-2'
p7083
aS'-550'
p7084
aS'74\r\n'
p7085
aa(lp7086
S'-1'
p7087
aS'-2'
p7088
aS'-557'
p7089
aS'73\r\n'
p7090
aa(lp7091
S'-1'
p7092
aS'-2'
p7093
aS'-556'
p7094
aS'74\r\n'
p7095
aa(lp7096
g26
aS'-1'
p7097
aS'-551'
p7098
aS'71\r\n'
p7099
aa(lp7100
S'-1'
p7101
aS'-1'
p7102
aS'-556'
p7103
aS'71\r\n'
p7104
aa(lp7105
S'-1'
p7106
aS'-1'
p7107
aS'-555'
p7108
aS'75\r\n'
p7109
aa(lp7110
g153
aS'-4'
p7111
aS'-556'
p7112
aS'76\r\n'
p7113
aa(lp7114
S'10'
p7115
aS'-7'
p7116
aS'-555'
p7117
aS'71\r\n'
p7118
aa(lp7119
S'10'
p7120
aS'-7'
p7121
aS'-554'
p7122
aS'74\r\n'
p7123
aa(lp7124
S'13'
p7125
aS'-9'
p7126
aS'-557'
p7127
aS'74\r\n'
p7128
aa(lp7129
S'10'
p7130
aS'-13'
p7131
aS'-552'
p7132
aS'75\r\n'
p7133
aa(lp7134
g372
aS'-12'
p7135
aS'-555'
p7136
aS'71\r\n'
p7137
aa(lp7138
g16
aS'-5'
p7139
aS'-556'
p7140
aS'73\r\n'
p7141
aa(lp7142
g372
ag26
aS'-549'
p7143
aS'74\r\n'
p7144
aa(lp7145
g32
aS'11'
p7146
aS'-548'
p7147
aS'74\r\n'
p7148
aa(lp7149
g32
aS'13'
p7150
aS'-555'
p7151
aS'71\r\n'
p7152
aa(lp7153
g26
aS'11'
p7154
aS'-560'
p7155
aS'73\r\n'
p7156
aa(lp7157
S'-1'
p7158
ag21
aS'-561'
p7159
aS'75\r\n'
p7160
aa(lp7161
g7
ag105
aS'-560'
p7162
aS'74\r\n'
p7163
aa(lp7164
g11
ag11
aS'-572'
p7165
aS'71\r\n'
p7166
aa(lp7167
g7
aS'-1'
p7168
aS'-577'
p7169
aS'74\r\n'
p7170
aa(lp7171
S'-3'
p7172
aS'-1'
p7173
aS'-570'
p7174
aS'74\r\n'
p7175
aa(lp7176
g26
aS'-5'
p7177
aS'-560'
p7178
aS'74\r\n'
p7179
aa(lp7180
g26
ag153
aS'-560'
p7181
aS'76\r\n'
p7182
aa(lp7183
S'-2'
p7184
ag32
aS'-554'
p7185
aS'71\r\n'
p7186
aa(lp7187
S'-4'
p7188
aS'11'
p7189
aS'-544'
p7190
aS'75\r\n'
p7191
aa(lp7192
S'-6'
p7193
aS'14'
p7194
aS'-549'
p7195
aS'74\r\n'
p7196
aa(lp7197
S'-9'
p7198
aS'11'
p7199
aS'-554'
p7200
aS'71\r\n'
p7201
aa(lp7202
S'-6'
p7203
ag21
aS'-560'
p7204
aS'73\r\n'
p7205
aa(lp7206
S'-3'
p7207
ag11
aS'-574'
p7208
aS'71\r\n'
p7209
aa(lp7210
S'-3'
p7211
aS'-1'
p7212
aS'-568'
p7213
aS'76\r\n'
p7214
aa(lp7215
S'-2'
p7216
aS'-2'
p7217
aS'-563'
p7218
aS'72\r\n'
p7219
aa(lp7220
g153
aS'-5'
p7221
aS'-570'
p7222
aS'75\r\n'
p7223
aa(lp7224
g100
aS'-4'
p7225
aS'-569'
p7226
aS'71\r\n'
p7227
aa(lp7228
g153
aS'-2'
p7229
aS'-564'
p7230
aS'76\r\n'
p7231
aa(lp7232
g7
ag26
aS'-563'
p7233
aS'76\r\n'
p7234
aa(lp7235
g26
ag26
aS'-562'
p7236
aS'72\r\n'
p7237
aa(lp7238
g26
ag100
aS'-561'
p7239
aS'74\r\n'
p7240
aa(lp7241
S'-5'
p7242
aS'10'
p7243
aS'-560'
p7244
aS'72\r\n'
p7245
aa(lp7246
S'-4'
p7247
ag16
aS'-561'
p7248
aS'73\r\n'
p7249
aa(lp7250
S'-6'
p7251
ag105
aS'-564'
p7252
aS'74\r\n'
p7253
aa(lp7254
S'-4'
p7255
ag32
aS'-569'
p7256
aS'74\r\n'
p7257
aa(lp7258
S'-3'
p7259
aS'-2'
p7260
aS'-566'
p7261
aS'72\r\n'
p7262
aa(lp7263
g26
aS'-7'
p7264
aS'-569'
p7265
aS'76\r\n'
p7266
aa(lp7267
g7
aS'-9'
p7268
aS'-568'
p7269
aS'74\r\n'
p7270
aa(lp7271
g11
aS'-10'
p7272
aS'-572'
p7273
aS'76\r\n'
p7274
aa(lp7275
g32
aS'-3'
p7276
aS'-561'
p7277
aS'74\r\n'
p7278
aa(lp7279
S'-3'
p7280
ag11
aS'-561'
p7281
aS'74\r\n'
p7282
aa(lp7283
S'-4'
p7284
ag32
aS'-559'
p7285
aS'76\r\n'
p7286
aa(lp7287
S'-4'
p7288
aS'10'
p7289
aS'-554'
p7290
aS'74\r\n'
p7291
aa(lp7292
S'-3'
p7293
aS'15'
p7294
aS'-552'
p7295
aS'71\r\n'
p7296
aa(lp7297
S'-3'
p7298
ag16
aS'-563'
p7299
aS'74\r\n'
p7300
aa(lp7301
S'-4'
p7302
ag105
aS'-562'
p7303
aS'72\r\n'
p7304
aa(lp7305
S'-3'
p7306
ag11
aS'-565'
p7307
aS'73\r\n'
p7308
aa(lp7309
g7
aS'-4'
p7310
aS'-563'
p7311
aS'75\r\n'
p7312
aa(lp7313
g100
aS'-6'
p7314
aS'-567'
p7315
aS'76\r\n'
p7316
aa(lp7317
g105
aS'-10'
p7318
aS'-570'
p7319
aS'75\r\n'
p7320
aa(lp7321
g105
aS'-8'
p7322
aS'-566'
p7323
aS'73\r\n'
p7324
aa(lp7325
g26
ag26
aS'-555'
p7326
aS'76\r\n'
p7327
aa(lp7328
S'-2'
p7329
ag32
aS'-551'
p7330
aS'71\r\n'
p7331
aa(lp7332
S'-8'
p7333
aS'11'
p7334
aS'-549'
p7335
aS'72\r\n'
p7336
aa(lp7337
S'-4'
p7338
aS'10'
p7339
aS'-552'
p7340
aS'72\r\n'
p7341
aa(lp7342
S'-2'
p7343
ag32
aS'-554'
p7344
aS'71\r\n'
p7345
aa(lp7346
S'-5'
p7347
ag153
aS'-565'
p7348
aS'72\r\n'
p7349
aa(lp7350
S'-4'
p7351
aS'-1'
p7352
aS'-570'
p7353
aS'74\r\n'
p7354
aa(lp7355
S'-4'
p7356
aS'-4'
p7357
aS'-575'
p7358
aS'71\r\n'
p7359
aa(lp7360
g26
aS'-8'
p7361
aS'-580'
p7362
aS'75\r\n'
p7363
aa(lp7364
S'-1'
p7365
aS'-5'
p7366
aS'-575'
p7367
aS'72\r\n'
p7368
aa(lp7369
S'-2'
p7370
aS'-2'
p7371
aS'-572'
p7372
aS'74\r\n'
p7373
aa(lp7374
S'-4'
p7375
ag32
aS'-564'
p7376
aS'73\r\n'
p7377
aa(lp7378
S'-2'
p7379
aS'13'
p7380
aS'-562'
p7381
aS'74\r\n'
p7382
aa(lp7383
S'-8'
p7384
aS'17'
p7385
aS'-562'
p7386
aS'73\r\n'
p7387
aa(lp7388
S'-3'
p7389
aS'12'
p7390
aS'-560'
p7391
aS'76\r\n'
p7392
aa(lp7393
S'-5'
p7394
ag16
aS'-569'
p7395
aS'75\r\n'
p7396
aa(lp7397
S'-4'
p7398
aS'-1'
p7399
aS'-574'
p7400
aS'72\r\n'
p7401
aa(lp7402
S'-4'
p7403
aS'-9'
p7404
aS'-571'
p7405
aS'71\r\n'
p7406
aa(lp7407
S'-3'
p7408
aS'-6'
p7409
aS'-559'
p7410
aS'76\r\n'
p7411
aa(lp7412
S'-2'
p7413
aS'-14'
p7414
aS'-562'
p7415
aS'71\r\n'
p7416
aa(lp7417
g11
aS'-15'
p7418
aS'-565'
p7419
aS'74\r\n'
p7420
aa(lp7421
S'-3'
p7422
aS'-9'
p7423
aS'-566'
p7424
aS'73\r\n'
p7425
aa(lp7426
S'-7'
p7427
aS'-4'
p7428
aS'-570'
p7429
aS'73\r\n'
p7430
aa(lp7431
S'-11'
p7432
ag32
aS'-567'
p7433
aS'76\r\n'
p7434
aa(lp7435
S'-14'
p7436
aS'11'
p7437
aS'-563'
p7438
aS'74\r\n'
p7439
aa(lp7440
S'-8'
p7441
aS'11'
p7442
aS'-563'
p7443
aS'72\r\n'
p7444
aa(lp7445
S'-11'
p7446
ag21
aS'-560'
p7447
aS'71\r\n'
p7448
aa(lp7449
S'-9'
p7450
aS'11'
p7451
aS'-560'
p7452
aS'73\r\n'
p7453
aa(lp7454
S'-6'
p7455
aS'10'
p7456
aS'-563'
p7457
aS'74\r\n'
p7458
aa(lp7459
g26
ag32
aS'-562'
p7460
aS'71\r\n'
p7461
aa(lp7462
S'-2'
p7463
ag26
aS'-557'
p7464
aS'72\r\n'
p7465
aa(lp7466
S'-2'
p7467
aS'-3'
p7468
aS'-564'
p7469
aS'75\r\n'
p7470
aa(lp7471
g7
aS'-4'
p7472
aS'-563'
p7473
aS'73\r\n'
p7474
aa(lp7475
g100
aS'-3'
p7476
aS'-563'
p7477
aS'72\r\n'
p7478
aa(lp7479
g153
ag11
aS'-566'
p7480
aS'71\r\n'
p7481
aa(lp7482
g26
ag7
aS'-564'
p7483
aS'76\r\n'
p7484
aa(lp7485
S'-6'
p7486
ag105
aS'-559'
p7487
aS'75\r\n'
p7488
aa(lp7489
g26
ag21
aS'-561'
p7490
aS'75\r\n'
p7491
aa(lp7492
g7
ag21
aS'-558'
p7493
aS'74\r\n'
p7494
aa(lp7495
g11
ag16
aS'-558'
p7496
aS'76\r\n'
p7497
aa(lp7498
g26
ag26
aS'-559'
p7499
aS'71\r\n'
p7500
aa(lp7501
g26
ag26
aS'-556'
p7502
aS'73\r\n'
p7503
aa(lp7504
g32
aS'-4'
p7505
aS'-562'
p7506
aS'76\r\n'
p7507
aa(lp7508
g11
aS'-5'
p7509
aS'-568'
p7510
aS'74\r\n'
p7511
aa(lp7512
g26
aS'-8'
p7513
aS'-560'
p7514
aS'72\r\n'
p7515
aa(lp7516
S'-1'
p7517
aS'-1'
p7518
aS'-556'
p7519
aS'76\r\n'
p7520
aa(lp7521
S'-5'
p7522
aS'-1'
p7523
aS'-553'
p7524
aS'75\r\n'
p7525
aa(lp7526
S'-5'
p7527
ag32
aS'-567'
p7528
aS'76\r\n'
p7529
aa(lp7530
S'-6'
p7531
ag105
aS'-557'
p7532
aS'74\r\n'
p7533
aa(lp7534
S'-6'
p7535
ag11
aS'-557'
p7536
aS'72\r\n'
p7537
aa(lp7538
S'-2'
p7539
aS'-2'
p7540
aS'-557'
p7541
aS'74\r\n'
p7542
aa(lp7543
g153
aS'-2'
p7544
aS'-555'
p7545
aS'73\r\n'
p7546
aa(lp7547
g26
aS'-8'
p7548
aS'-556'
p7549
aS'76\r\n'
p7550
aa(lp7551
S'-2'
p7552
aS'-10'
p7553
aS'-550'
p7554
aS'74\r\n'
p7555
aa(lp7556
S'-2'
p7557
aS'-9'
p7558
aS'-554'
p7559
aS'75\r\n'
p7560
aa(lp7561
S'-5'
p7562
aS'-6'
p7563
aS'-557'
p7564
aS'72\r\n'
p7565
aa(lp7566
S'-2'
p7567
aS'-2'
p7568
aS'-565'
p7569
aS'73\r\n'
p7570
aa(lp7571
S'-5'
p7572
ag100
aS'-560'
p7573
aS'76\r\n'
p7574
aa(lp7575
S'-6'
p7576
ag372
aS'-560'
p7577
aS'74\r\n'
p7578
aa(lp7579
S'-10'
p7580
aS'19'
p7581
aS'-564'
p7582
aS'72\r\n'
p7583
aa(lp7584
S'-11'
p7585
aS'26'
p7586
aS'-567'
p7587
aS'75\r\n'
p7588
aa(lp7589
S'-12'
p7590
aS'35'
p7591
aS'-563'
p7592
aS'76\r\n'
p7593
aa(lp7594
S'-13'
p7595
aS'30'
p7596
aS'-570'
p7597
aS'72\r\n'
p7598
aa(lp7599
S'-5'
p7600
aS'13'
p7601
aS'-564'
p7602
aS'73\r\n'
p7603
aa(lp7604
g26
aS'-5'
p7605
aS'-558'
p7606
aS'76\r\n'
p7607
aa(lp7608
g100
aS'-19'
p7609
aS'-553'
p7610
aS'76\r\n'
p7611
aa(lp7612
g16
aS'-31'
p7613
aS'-562'
p7614
aS'74\r\n'
p7615
aa(lp7616
S'10'
p7617
aS'-36'
p7618
aS'-564'
p7619
aS'75\r\n'
p7620
aa(lp7621
S'10'
p7622
aS'-41'
p7623
aS'-568'
p7624
aS'74\r\n'
p7625
aa(lp7626
S'10'
p7627
aS'-41'
p7628
aS'-562'
p7629
aS'76\r\n'
p7630
aa(lp7631
g32
aS'-38'
p7632
aS'-564'
p7633
aS'73\r\n'
p7634
aa(lp7635
g7
aS'-30'
p7636
aS'-560'
p7637
aS'75\r\n'
p7638
aa(lp7639
S'-10'
p7640
aS'-8'
p7641
aS'-568'
p7642
aS'71\r\n'
p7643
aa(lp7644
S'-9'
p7645
ag21
aS'-560'
p7646
aS'73\r\n'
p7647
aa(lp7648
S'-10'
p7649
aS'14'
p7650
aS'-547'
p7651
aS'72\r\n'
p7652
aa(lp7653
S'-12'
p7654
aS'14'
p7655
aS'-556'
p7656
aS'76\r\n'
p7657
aa(lp7658
S'-7'
p7659
ag26
aS'-557'
p7660
aS'73\r\n'
p7661
aa(lp7662
g100
aS'-17'
p7663
aS'-564'
p7664
aS'76\r\n'
p7665
aa(lp7666
S'10'
p7667
aS'-21'
p7668
aS'-556'
p7669
aS'76\r\n'
p7670
aa(lp7671
g32
aS'-10'
p7672
aS'-562'
p7673
aS'75\r\n'
p7674
aa(lp7675
S'-4'
p7676
ag7
aS'-558'
p7677
aS'76\r\n'
p7678
aa(lp7679
S'-12'
p7680
aS'24'
p7681
aS'-566'
p7682
aS'75\r\n'
p7683
aa(lp7684
S'-20'
p7685
aS'44'
p7686
aS'-556'
p7687
aS'73\r\n'
p7688
aa(lp7689
S'-25'
p7690
aS'57'
p7691
aS'-550'
p7692
aS'75\r\n'
p7693
aa(lp7694
S'-29'
p7695
aS'55'
p7696
aS'-558'
p7697
aS'76\r\n'
p7698
aa(lp7699
S'-23'
p7700
aS'39'
p7701
aS'-551'
p7702
aS'75\r\n'
p7703
aa(lp7704
S'-11'
p7705
aS'16'
p7706
aS'-557'
p7707
aS'71\r\n'
p7708
aa(lp7709
g26
aS'-14'
p7710
aS'-552'
p7711
aS'72\r\n'
p7712
aa(lp7713
g21
aS'-40'
p7714
aS'-548'
p7715
aS'74\r\n'
p7716
aa(lp7717
S'15'
p7718
aS'-52'
p7719
aS'-561'
p7720
aS'72\r\n'
p7721
aa(lp7722
g372
aS'-50'
p7723
aS'-551'
p7724
aS'72\r\n'
p7725
aa(lp7726
g11
aS'-30'
p7727
aS'-554'
p7728
aS'72\r\n'
p7729
aa(lp7730
S'-2'
p7731
aS'-7'
p7732
aS'-555'
p7733
aS'74\r\n'
p7734
aa(lp7735
S'-8'
p7736
aS'16'
p7737
aS'-563'
p7738
aS'74\r\n'
p7739
aa(lp7740
S'-14'
p7741
aS'31'
p7742
aS'-564'
p7743
aS'76\r\n'
p7744
aa(lp7745
S'-15'
p7746
aS'40'
p7747
aS'-558'
p7748
aS'75\r\n'
p7749
aa(lp7750
S'-13'
p7751
aS'35'
p7752
aS'-556'
p7753
aS'71\r\n'
p7754
aa(lp7755
S'-6'
p7756
aS'17'
p7757
aS'-559'
p7758
aS'75\r\n'
p7759
aa(lp7760
g26
aS'-1'
p7761
aS'-555'
p7762
aS'71\r\n'
p7763
aa(lp7764
g105
aS'-19'
p7765
aS'-561'
p7766
aS'75\r\n'
p7767
aa(lp7768
g153
aS'-24'
p7769
aS'-557'
p7770
aS'71\r\n'
p7771
aa(lp7772
g153
aS'-19'
p7773
aS'-561'
p7774
aS'72\r\n'
p7775
aa(lp7776
g26
aS'-7'
p7777
aS'-566'
p7778
aS'74\r\n'
p7779
aa(lp7780
S'-5'
p7781
ag372
aS'-561'
p7782
aS'74\r\n'
p7783
aa(lp7784
S'-8'
p7785
aS'16'
p7786
aS'-561'
p7787
aS'73\r\n'
p7788
aa(lp7789
S'-9'
p7790
aS'18'
p7791
aS'-559'
p7792
aS'71\r\n'
p7793
aa(lp7794
S'-6'
p7795
aS'16'
p7796
aS'-558'
p7797
aS'74\r\n'
p7798
aa(lp7799
S'-5'
p7800
ag16
aS'-552'
p7801
aS'74\r\n'
p7802
aa(lp7803
g26
ag11
aS'-551'
p7804
aS'74\r\n'
p7805
aa(lp7806
g153
aS'-10'
p7807
aS'-561'
p7808
aS'74\r\n'
p7809
aa(lp7810
g153
aS'-18'
p7811
aS'-569'
p7812
aS'71\r\n'
p7813
aa(lp7814
g153
aS'-20'
p7815
aS'-570'
p7816
aS'76\r\n'
p7817
aa(lp7818
g100
aS'-23'
p7819
aS'-577'
p7820
aS'71\r\n'
p7821
aa(lp7822
g32
aS'-13'
p7823
aS'-574'
p7824
aS'72\r\n'
p7825
aa(lp7826
g26
aS'-1'
p7827
aS'-571'
p7828
aS'72\r\n'
p7829
aa(lp7830
S'-6'
p7831
ag372
aS'-562'
p7832
aS'73\r\n'
p7833
aa(lp7834
S'-10'
p7835
aS'19'
p7836
aS'-556'
p7837
aS'74\r\n'
p7838
aa(lp7839
S'-10'
p7840
aS'21'
p7841
aS'-546'
p7842
aS'74\r\n'
p7843
aa(lp7844
S'-12'
p7845
aS'20'
p7846
aS'-551'
p7847
aS'76\r\n'
p7848
aa(lp7849
S'-13'
p7850
aS'17'
p7851
aS'-559'
p7852
aS'72\r\n'
p7853
aa(lp7854
S'-11'
p7855
aS'15'
p7856
aS'-561'
p7857
aS'75\r\n'
p7858
aa(lp7859
S'-10'
p7860
ag26
aS'-567'
p7861
aS'74\r\n'
p7862
aa(lp7863
S'-3'
p7864
aS'-7'
p7865
aS'-572'
p7866
aS'75\r\n'
p7867
aa(lp7868
g11
aS'-15'
p7869
aS'-558'
p7870
aS'76\r\n'
p7871
aa(lp7872
g153
aS'-21'
p7873
aS'-557'
p7874
aS'76\r\n'
p7875
aa(lp7876
g32
aS'-19'
p7877
aS'-556'
p7878
aS'74\r\n'
p7879
aa(lp7880
g26
aS'-8'
p7881
aS'-556'
p7882
aS'72\r\n'
p7883
aa(lp7884
S'-4'
p7885
ag11
aS'-552'
p7886
aS'72\r\n'
p7887
aa(lp7888
S'-2'
p7889
aS'13'
p7890
aS'-564'
p7891
aS'73\r\n'
p7892
aa(lp7893
S'-9'
p7894
aS'16'
p7895
aS'-563'
p7896
aS'72\r\n'
p7897
aa(lp7898
S'-6'
p7899
aS'19'
p7900
aS'-569'
p7901
aS'73\r\n'
p7902
aa(lp7903
g7
aS'12'
p7904
aS'-576'
p7905
aS'71\r\n'
p7906
aa(lp7907
S'-1'
p7908
ag105
aS'-571'
p7909
aS'76\r\n'
p7910
aa(lp7911
g100
aS'-4'
p7912
aS'-559'
p7913
aS'76\r\n'
p7914
aa(lp7915
g11
aS'-15'
p7916
aS'-563'
p7917
aS'72\r\n'
p7918
aa(lp7919
g11
aS'-19'
p7920
aS'-557'
p7921
aS'74\r\n'
p7922
aa(lp7923
g11
aS'-15'
p7924
aS'-559'
p7925
aS'72\r\n'
p7926
aa(lp7927
g26
aS'-6'
p7928
aS'-558'
p7929
aS'76\r\n'
p7930
aa(lp7931
S'-1'
p7932
ag21
aS'-558'
p7933
aS'72\r\n'
p7934
aa(lp7935
S'-6'
p7936
aS'16'
p7937
aS'-564'
p7938
aS'75\r\n'
p7939
aa(lp7940
S'-12'
p7941
aS'20'
p7942
aS'-573'
p7943
aS'76\r\n'
p7944
aa(lp7945
S'-11'
p7946
aS'17'
p7947
aS'-568'
p7948
aS'71\r\n'
p7949
aa(lp7950
S'-10'
p7951
ag21
aS'-569'
p7952
aS'74\r\n'
p7953
aa(lp7954
S'-5'
p7955
aS'-2'
p7956
aS'-565'
p7957
aS'72\r\n'
p7958
aa(lp7959
g7
aS'-13'
p7960
aS'-565'
p7961
aS'72\r\n'
p7962
aa(lp7963
S'10'
p7964
aS'-21'
p7965
aS'-561'
p7966
aS'72\r\n'
p7967
aa(lp7968
S'14'
p7969
aS'-30'
p7970
aS'-557'
p7971
aS'72\r\n'
p7972
aa(lp7973
S'10'
p7974
aS'-30'
p7975
aS'-557'
p7976
aS'73\r\n'
p7977
aa(lp7978
g105
aS'-16'
p7979
aS'-562'
p7980
aS'75\r\n'
p7981
aa(lp7982
S'-2'
p7983
aS'-3'
p7984
aS'-561'
p7985
aS'71\r\n'
p7986
aa(lp7987
S'-10'
p7988
ag21
aS'-559'
p7989
aS'76\r\n'
p7990
aa(lp7991
S'-9'
p7992
aS'15'
p7993
aS'-564'
p7994
aS'74\r\n'
p7995
aa(lp7996
S'-8'
p7997
aS'17'
p7998
aS'-559'
p7999
aS'72\r\n'
p8000
aa(lp8001
S'-3'
p8002
ag21
aS'-577'
p8003
aS'72\r\n'
p8004
aa(lp8005
g26
ag32
aS'-552'
p8006
aS'74\r\n'
p8007
aa(lp8008
g153
ag26
aS'-563'
p8009
aS'72\r\n'
p8010
aa(lp8011
g16
aS'-9'
p8012
aS'-573'
p8013
aS'75\r\n'
p8014
aa(lp8015
g11
aS'-11'
p8016
aS'-561'
p8017
aS'76\r\n'
p8018
aa(lp8019
g153
aS'-10'
p8020
aS'-564'
p8021
aS'74\r\n'
p8022
aa(lp8023
g11
aS'-7'
p8024
aS'-556'
p8025
aS'74\r\n'
p8026
aa(lp8027
S'-1'
p8028
aS'-4'
p8029
aS'-559'
p8030
aS'74\r\n'
p8031
aa(lp8032
S'-4'
p8033
ag153
aS'-566'
p8034
aS'76\r\n'
p8035
aa(lp8036
S'-4'
p8037
ag372
aS'-561'
p8038
aS'76\r\n'
p8039
aa(lp8040
S'-3'
p8041
ag21
aS'-562'
p8042
aS'71\r\n'
p8043
aa(lp8044
S'-2'
p8045
aS'16'
p8046
aS'-558'
p8047
aS'76\r\n'
p8048
aa(lp8049
g26
aS'14'
p8050
aS'-556'
p8051
aS'72\r\n'
p8052
aa(lp8053
S'-1'
p8054
ag21
aS'-559'
p8055
aS'73\r\n'
p8056
aa(lp8057
g26
ag16
aS'-551'
p8058
aS'74\r\n'
p8059
aa(lp8060
g26
aS'-5'
p8061
aS'-550'
p8062
aS'75\r\n'
p8063
aa(lp8064
g7
aS'-11'
p8065
aS'-549'
p8066
aS'76\r\n'
p8067
aa(lp8068
g26
aS'-16'
p8069
aS'-557'
p8070
aS'74\r\n'
p8071
aa(lp8072
S'-3'
p8073
aS'-16'
p8074
aS'-566'
p8075
aS'72\r\n'
p8076
aa(lp8077
S'-9'
p8078
aS'-12'
p8079
aS'-568'
p8080
aS'73\r\n'
p8081
aa(lp8082
S'-5'
p8083
aS'-6'
p8084
aS'-563'
p8085
aS'73\r\n'
p8086
aa(lp8087
S'-6'
p8088
aS'-4'
p8089
aS'-580'
p8090
aS'71\r\n'
p8091
aa(lp8092
S'-11'
p8093
ag105
aS'-551'
p8094
aS'74\r\n'
p8095
aa(lp8096
S'-9'
p8097
aS'10'
p8098
aS'-557'
p8099
aS'74\r\n'
p8100
aa(lp8101
S'-7'
p8102
aS'15'
p8103
aS'-567'
p8104
aS'71\r\n'
p8105
aa(lp8106
S'-8'
p8107
aS'12'
p8108
aS'-547'
p8109
aS'76\r\n'
p8110
aa(lp8111
S'-9'
p8112
ag100
aS'-569'
p8113
aS'73\r\n'
p8114
aa(lp8115
S'-2'
p8116
aS'-3'
p8117
aS'-549'
p8118
aS'74\r\n'
p8119
aa(lp8120
S'-1'
p8121
aS'-15'
p8122
aS'-553'
p8123
aS'74\r\n'
p8124
aa(lp8125
g372
aS'-5'
p8126
aS'-543'
p8127
aS'74\r\n'
p8128
aa(lp8129
S'41'
p8130
aS'27'
p8131
aS'-531'
p8132
aS'76\r\n'
p8133
aa(lp8134
S'62'
p8135
aS'95'
p8136
aS'-527'
p8137
aS'76\r\n'
p8138
aa(lp8139
S'-16'
p8140
aS'25'
p8141
aS'-546'
p8142
aS'76\r\n'
p8143
aa(lp8144
S'110'
p8145
aS'44'
p8146
aS'-267'
p8147
aS'74\r\n'
p8148
aa(lp8149
S'378'
p8150
aS'-235'
p8151
aS'-207'
p8152
aS'74\r\n'
p8153
aa(lp8154
S'297'
p8155
aS'-279'
p8156
aS'-329'
p8157
aS'73\r\n'
p8158
aa(lp8159
S'-97'
p8160
aS'-59'
p8161
aS'-45'
p8162
aS'75\r\n'
p8163
aa(lp8164
S'-419'
p8165
aS'53'
p8166
aS'323'
p8167
aS'75\r\n'
p8168
aa(lp8169
S'-446'
p8170
aS'208'
p8171
aS'558'
p8172
aS'72\r\n'
p8173
aa(lp8174
S'-452'
p8175
aS'534'
p8176
aS'810'
p8177
aS'73\r\n'
p8178
aa(lp8179
S'-348'
p8180
aS'773'
p8181
aS'890'
p8182
aS'72\r\n'
p8183
aa(lp8184
S'-301'
p8185
aS'783'
p8186
aS'500'
p8187
aS'72\r\n'
p8188
aa(lp8189
S'-228'
p8190
aS'653'
p8191
aS'-114'
p8192
aS'76\r\n'
p8193
aa(lp8194
S'-130'
p8195
aS'213'
p8196
aS'-703'
p8197
aS'72\r\n'
p8198
aa(lp8199
S'-191'
p8200
aS'-101'
p8201
aS'-1121'
p8202
aS'71\r\n'
p8203
aa(lp8204
S'-120'
p8205
aS'55'
p8206
aS'-1051'
p8207
aS'75\r\n'
p8208
aa(lp8209
S'-286'
p8210
aS'211'
p8211
aS'-8870'
p8212
aS'23'
p8213
aS'-556'
p8214
aS'71\r\n'
p8215
aa(lp8216
g11
ag105
aS'-544'
p8217
aS'73\r\n'
p8218
aa(lp8219
g7
aS'-6'
p8220
aS'-567'
p8221
aS'76\r\n'
p8222
aa(lp8223
g16
aS'-15'
p8224
aS'-565'
p8225
aS'72\r\n'
p8226
aa(lp8227
g153
aS'-15'
p8228
aS'-554'
p8229
aS'75\r\n'
p8230
aa(lp8231
g32
aS'-7'
p8232
aS'-562'
p8233
aS'71\r\n'
p8234
aa(lp8235
S'-4'
p8236
ag26
aS'-560'
p8237
aS'75\r\n'
p8238
aa(lp8239
S'-6'
p8240
aS'-4'
p8241
aS'-571'
p8242
aS'76\r\n'
p8243
aa(lp8244
S'-5'
p8245
ag153
aS'-567'
p8246
aS'74\r\n'
p8247
aa(lp8248
g26
ag21
aS'-566'
p8249
aS'76\r\n'
p8250
aa(lp8251
g26
ag100
aS'-563'
p8252
aS'72\r\n'
p8253
aa(lp8254
S'-1'
p8255
aS'10'
p8256
aS'-557'
p8257
aS'73\r\n'
p8258
aa(lp8259
g26
ag16
aS'-566'
p8260
aS'72\r\n'
p8261
aa(lp8262
S'-2'
p8263
aS'11'
p8264
aS'-572'
p8265
aS'74\r\n'
p8266
aa(lp8267
g26
ag153
aS'-565'
p8268
aS'71\r\n'
p8269
aa(lp8270
g32
aS'-4'
p8271
aS'-571'
p8272
aS'71\r\n'
p8273
aa(lp8274
g153
aS'-13'
p8275
aS'-573'
p8276
aS'76\r\n'
p8277
aa(lp8278
g7
aS'-12'
p8279
aS'-568'
p8280
aS'73\r\n'
p8281
aa(lp8282
S'-1'
p8283
aS'-11'
p8284
aS'-570'
p8285
aS'73\r\n'
p8286
aa(lp8287
g11
aS'-5'
p8288
aS'-565'
p8289
aS'71\r\n'
p8290
aa(lp8291
g26
ag32
aS'-561'
p8292
aS'71\r\n'
p8293
aa(lp8294
S'-2'
p8295
aS'16'
p8296
aS'-554'
p8297
aS'73\r\n'
p8298
aa(lp8299
S'-3'
p8300
aS'18'
p8301
aS'-550'
p8302
aS'71\r\n'
p8303
aa(lp8304
g7
aS'16'
p8305
aS'-561'
p8306
aS'73\r\n'
p8307
aa(lp8308
S'-1'
p8309
aS'12'
p8310
aS'-568'
p8311
aS'75\r\n'
p8312
aa(lp8313
g26
ag26
aS'-561'
p8314
aS'72\r\n'
p8315
aa(lp8316
g105
aS'-10'
p8317
aS'-566'
p8318
aS'76\r\n'
p8319
aa(lp8320
g105
aS'-20'
p8321
aS'-556'
p8322
aS'73\r\n'
p8323
aa(lp8324
g105
aS'-27'
p8325
aS'-553'
p8326
aS'76\r\n'
p8327
aa(lp8328
g7
aS'-21'
p8329
aS'-562'
p8330
aS'75\r\n'
p8331
aa(lp8332
g7
aS'-13'
p8333
aS'-568'
p8334
aS'76\r\n'
p8335
aa(lp8336
S'-1'
p8337
ag26
aS'-564'
p8338
aS'76\r\n'
p8339
aa(lp8340
S'-3'
p8341
ag21
aS'-567'
p8342
aS'74\r\n'
p8343
aa(lp8344
S'-7'
p8345
aS'12'
p8346
aS'-567'
p8347
aS'74\r\n'
p8348
aa.