(lp0
(lp1
S'7\n'
p2
aa(lp3
S'-11'
p4
aS'5'
p5
aS'-564'
p6
aS'74\r\n'
p7
aa(lp8
S'-5'
p9
aS'3'
p10
aS'-553'
p11
aS'76\r\n'
p12
aa(lp13
S'-8'
p14
aS'7'
p15
aS'-566'
p16
aS'75\r\n'
p17
aa(lp18
S''
p19
aS'0'
p20
aS'-569'
p21
aS'71\r\n'
p22
aa(lp23
g20
aS'-5'
p24
aS'-569'
p25
aS'71\r\n'
p26
aa(lp27
g20
aS'-6'
p28
aS'-567'
p29
aS'72\r\n'
p30
aa(lp31
S'-2'
p32
aS'-3'
p33
aS'-564'
p34
aS'74\r\n'
p35
aa(lp36
S'-6'
p37
aS'-4'
p38
aS'-570'
p39
aS'73\r\n'
p40
aa(lp41
S'-4'
p42
aS'-2'
p43
aS'-561'
p44
aS'74\r\n'
p45
aa(lp46
S'-11'
p47
ag5
aS'-564'
p48
aS'74\r\n'
p49
aa(lp50
S'-5'
p51
ag10
aS'-553'
p52
aS'76\r\n'
p53
aa(lp54
S'-8'
p55
ag15
aS'-566'
p56
aS'75\r\n'
p57
aa(lp58
S'-7'
p59
ag5
aS'-563'
p60
aS'76\r\n'
p61
aa(lp62
S'-10'
p63
aS'4'
p64
aS'-574'
p65
aS'73\r\n'
p66
aa(lp67
S'-5'
p68
aS'2'
p69
aS'-564'
p70
aS'73\r\n'
p71
aa(lp72
S'-1'
p73
aS'1'
p74
aS'-570'
p75
aS'72\r\n'
p76
aa(lp77
g69
ag74
aS'-568'
p78
aS'73\r\n'
p79
aa(lp80
g74
aS'-4'
p81
aS'-569'
p82
aS'74\r\n'
p83
aa(lp84
g74
aS'-6'
p85
aS'-572'
p86
aS'74\r\n'
p87
aa(lp88
g64
aS'-5'
p89
aS'-564'
p90
aS'72\r\n'
p91
aa(lp92
g69
ag20
aS'-577'
p93
aS'76\r\n'
p94
aa(lp95
g20
aS'-3'
p96
aS'-570'
p97
aS'75\r\n'
p98
aa(lp99
S'-5'
p100
aS'-3'
p101
aS'-571'
p102
aS'72\r\n'
p103
aa(lp104
S'-1'
p105
ag20
aS'-569'
p106
aS'72\r\n'
p107
aa(lp108
S'-3'
p109
ag10
aS'-568'
p110
aS'71\r\n'
p111
aa(lp112
S'-3'
p113
ag10
aS'-567'
p114
aS'74\r\n'
p115
aa(lp116
g20
ag10
aS'-562'
p117
aS'76\r\n'
p118
aa(lp119
g20
ag10
aS'-564'
p120
aS'72\r\n'
p121
aa(lp122
S'-3'
p123
ag10
aS'-560'
p124
aS'75\r\n'
p125
aa(lp126
S'-6'
p127
aS'6'
p128
aS'-567'
p129
aS'74\r\n'
p130
aa(lp131
S'-7'
p132
ag128
aS'-570'
p133
aS'74\r\n'
p134
aa(lp135
S'-4'
p136
ag10
aS'-573'
p137
aS'75\r\n'
p138
aa(lp139
S'-1'
p140
ag64
aS'-565'
p141
aS'75\r\n'
p142
aa(lp143
S'-1'
p144
ag20
aS'-564'
p145
aS'71\r\n'
p146
aa(lp147
S'-2'
p148
ag74
aS'-561'
p149
aS'76\r\n'
p150
aa(lp151
g20
ag69
aS'-563'
p152
aS'76\r\n'
p153
aa(lp154
g20
aS'-1'
p155
aS'-560'
p156
aS'71\r\n'
p157
aa(lp158
S'-4'
p159
aS'-1'
p160
aS'-557'
p161
aS'71\r\n'
p162
aa(lp163
S'-3'
p164
aS'-5'
p165
aS'-561'
p166
aS'71\r\n'
p167
aa(lp168
g20
aS'-2'
p169
aS'-564'
p170
aS'75\r\n'
p171
aa(lp172
S'-2'
p173
aS'-3'
p174
aS'-556'
p175
aS'75\r\n'
p176
aa(lp177
g20
aS'-7'
p178
aS'-557'
p179
aS'72\r\n'
p180
aa(lp181
g64
aS'-8'
p182
aS'-557'
p183
aS'74\r\n'
p184
aa(lp185
g74
aS'-3'
p186
aS'-552'
p187
aS'73\r\n'
p188
aa(lp189
S'-1'
p190
aS'-4'
p191
aS'-563'
p192
aS'72\r\n'
p193
aa(lp194
S'-3'
p195
aS'-1'
p196
aS'-568'
p197
aS'73\r\n'
p198
aa(lp199
S'-4'
p200
ag69
aS'-569'
p201
aS'73\r\n'
p202
aa(lp203
S'-8'
p204
ag74
aS'-563'
p205
aS'76\r\n'
p206
aa(lp207
S'-11'
p208
ag20
aS'-566'
p209
aS'71\r\n'
p210
aa(lp211
S'-9'
p212
ag20
aS'-562'
p213
aS'73\r\n'
p214
aa(lp215
S'-8'
p216
ag20
aS'-560'
p217
aS'76\r\n'
p218
aa(lp219
S'-4'
p220
ag20
aS'-565'
p221
aS'73\r\n'
p222
aa(lp223
S'-4'
p224
ag20
aS'-563'
p225
aS'73\r\n'
p226
aa(lp227
S'-3'
p228
aS'-4'
p229
aS'-561'
p230
aS'74\r\n'
p231
aa(lp232
S'-1'
p233
aS'-9'
p234
aS'-553'
p235
aS'73\r\n'
p236
aa(lp237
S'-3'
p238
aS'-6'
p239
aS'-559'
p240
aS'74\r\n'
p241
aa(lp242
S'-1'
p243
aS'-3'
p244
aS'-555'
p245
aS'73\r\n'
p246
aa(lp247
g74
aS'-3'
p248
aS'-561'
p249
aS'75\r\n'
p250
aa(lp251
S'-1'
p252
aS'-4'
p253
aS'-558'
p254
aS'71\r\n'
p255
aa(lp256
S'-1'
p257
aS'-2'
p258
aS'-559'
p259
aS'71\r\n'
p260
aa(lp261
S'-1'
p262
ag20
aS'-552'
p263
aS'75\r\n'
p264
aa(lp265
g20
ag10
aS'-561'
p266
aS'75\r\n'
p267
aa(lp268
S'-1'
p269
ag5
aS'-553'
p270
aS'75\r\n'
p271
aa(lp272
S'-3'
p273
ag10
aS'-559'
p274
aS'74\r\n'
p275
aa(lp276
g69
aS'9'
p277
aS'-561'
p278
aS'72\r\n'
p279
aa(lp280
g64
ag10
aS'-565'
p281
aS'73\r\n'
p282
aa(lp283
g69
aS'-1'
p284
aS'-575'
p285
aS'73\r\n'
p286
aa(lp287
g10
aS'-1'
p288
aS'-575'
p289
aS'74\r\n'
p290
aa(lp291
g20
ag69
aS'-573'
p292
aS'75\r\n'
p293
aa(lp294
S'-2'
p295
ag20
aS'-564'
p296
aS'75\r\n'
p297
aa(lp298
S'-5'
p299
ag20
aS'-568'
p300
aS'71\r\n'
p301
aa(lp302
S'-3'
p303
ag74
aS'-564'
p304
aS'75\r\n'
p305
aa(lp306
g20
ag64
aS'-568'
p307
aS'72\r\n'
p308
aa(lp309
g20
ag69
aS'-565'
p310
aS'71\r\n'
p311
aa(lp312
S'-2'
p313
ag277
aS'-566'
p314
aS'74\r\n'
p315
aa(lp316
S'-6'
p317
aS'10'
p318
aS'-556'
p319
aS'74\r\n'
p320
aa(lp321
S'-12'
p322
ag128
aS'-559'
p323
aS'73\r\n'
p324
aa(lp325
S'-6'
p326
ag74
aS'-563'
p327
aS'76\r\n'
p328
aa(lp329
S'-6'
p330
ag64
aS'-570'
p331
aS'73\r\n'
p332
aa(lp333
S'-6'
p334
ag74
aS'-567'
p335
aS'75\r\n'
p336
aa(lp337
S'-6'
p338
ag74
aS'-569'
p339
aS'73\r\n'
p340
aa(lp341
S'-4'
p342
aS'-2'
p343
aS'-569'
p344
aS'72\r\n'
p345
aa(lp346
S'-7'
p347
aS'-4'
p348
aS'-569'
p349
aS'72\r\n'
p350
aa(lp351
S'-6'
p352
aS'-6'
p353
aS'-568'
p354
aS'76\r\n'
p355
aa(lp356
S'-2'
p357
ag20
aS'-567'
p358
aS'72\r\n'
p359
aa(lp360
g20
aS'-3'
p361
aS'-564'
p362
aS'73\r\n'
p363
aa(lp364
S'-1'
p365
aS'-3'
p366
aS'-560'
p367
aS'71\r\n'
p368
aa(lp369
S'-3'
p370
aS'-5'
p371
aS'-560'
p372
aS'71\r\n'
p373
aa(lp374
g20
aS'-9'
p375
aS'-563'
p376
aS'73\r\n'
p377
aa(lp378
g74
aS'-8'
p379
aS'-567'
p380
aS'76\r\n'
p381
aa(lp382
S'-1'
p383
ag20
aS'-561'
p384
aS'71\r\n'
p385
aa(lp386
g20
ag20
aS'-570'
p387
aS'73\r\n'
p388
aa(lp389
g20
aS'-4'
p390
aS'-569'
p391
aS'72\r\n'
p392
aa(lp393
g20
aS'-2'
p394
aS'-565'
p395
aS'74\r\n'
p396
aa(lp397
g69
aS'-3'
p398
aS'-562'
p399
aS'72\r\n'
p400
aa(lp401
g74
aS'-6'
p402
aS'-564'
p403
aS'71\r\n'
p404
aa(lp405
S'-2'
p406
aS'-2'
p407
aS'-568'
p408
aS'75\r\n'
p409
aa(lp410
S'-3'
p411
aS'-1'
p412
aS'-565'
p413
aS'73\r\n'
p414
aa(lp415
S'-4'
p416
aS'-1'
p417
aS'-560'
p418
aS'75\r\n'
p419
aa(lp420
S'-6'
p421
ag20
aS'-568'
p422
aS'71\r\n'
p423
aa(lp424
S'-8'
p425
ag20
aS'-567'
p426
aS'71\r\n'
p427
aa(lp428
S'-11'
p429
ag20
aS'-564'
p430
aS'73\r\n'
p431
aa(lp432
S'-12'
p433
aS'-4'
p434
aS'-560'
p435
aS'76\r\n'
p436
aa(lp437
S'-11'
p438
ag20
aS'-555'
p439
aS'75\r\n'
p440
aa(lp441
S'-7'
p442
ag20
aS'-560'
p443
aS'72\r\n'
p444
aa(lp445
S'-6'
p446
aS'-2'
p447
aS'-566'
p448
aS'75\r\n'
p449
aa(lp450
S'-7'
p451
aS'-1'
p452
aS'-577'
p453
aS'76\r\n'
p454
aa(lp455
S'-5'
p456
aS'-4'
p457
aS'-574'
p458
aS'71\r\n'
p459
aa(lp460
S'-6'
p461
aS'-4'
p462
aS'-568'
p463
aS'71\r\n'
p464
aa(lp465
S'-7'
p466
aS'-5'
p467
aS'-567'
p468
aS'76\r\n'
p469
aa(lp470
S'-2'
p471
aS'-7'
p472
aS'-567'
p473
aS'73\r\n'
p474
aa(lp475
S'-5'
p476
ag20
aS'-569'
p477
aS'74\r\n'
p478
aa(lp479
S'-7'
p480
ag69
aS'-564'
p481
aS'73\r\n'
p482
aa(lp483
S'-5'
p484
ag128
aS'-564'
p485
aS'76\r\n'
p486
aa(lp487
S'-9'
p488
ag15
aS'-560'
p489
aS'73\r\n'
p490
aa(lp491
S'-3'
p492
ag277
aS'-559'
p493
aS'73\r\n'
p494
aa(lp495
S'-2'
p496
ag277
aS'-566'
p497
aS'76\r\n'
p498
aa(lp499
g20
ag128
aS'-565'
p500
aS'74\r\n'
p501
aa(lp502
g10
ag64
aS'-561'
p503
aS'73\r\n'
p504
aa(lp505
g128
ag69
aS'-564'
p506
aS'73\r\n'
p507
aa(lp508
g20
ag74
aS'-569'
p509
aS'72\r\n'
p510
aa(lp511
g20
aS'-1'
p512
aS'-561'
p513
aS'75\r\n'
p514
aa(lp515
S'-1'
p516
ag20
aS'-558'
p517
aS'76\r\n'
p518
aa(lp519
g20
ag10
aS'-558'
p520
aS'76\r\n'
p521
aa(lp522
g74
ag5
aS'-562'
p523
aS'71\r\n'
p524
aa(lp525
S'-1'
p526
ag10
aS'-566'
p527
aS'76\r\n'
p528
aa(lp529
S'-2'
p530
ag20
aS'-562'
p531
aS'73\r\n'
p532
aa(lp533
S'-4'
p534
ag20
aS'-561'
p535
aS'72\r\n'
p536
aa(lp537
S'-5'
p538
ag20
aS'-560'
p539
aS'76\r\n'
p540
aa(lp541
S'-10'
p542
aS'-2'
p543
aS'-562'
p544
aS'73\r\n'
p545
aa(lp546
S'-8'
p547
ag10
aS'-564'
p548
aS'76\r\n'
p549
aa(lp550
S'-4'
p551
ag74
aS'-569'
p552
aS'76\r\n'
p553
aa(lp554
S'-1'
p555
ag10
aS'-569'
p556
aS'74\r\n'
p557
aa(lp558
S'-2'
p559
ag10
aS'-572'
p560
aS'71\r\n'
p561
aa(lp562
g74
ag10
aS'-570'
p563
aS'76\r\n'
p564
aa(lp565
g20
ag5
aS'-572'
p566
aS'71\r\n'
p567
aa(lp568
g74
ag69
aS'-565'
p569
aS'71\r\n'
p570
aa(lp571
S'-1'
p572
aS'-1'
p573
aS'-563'
p574
aS'75\r\n'
p575
aa(lp576
S'-3'
p577
ag20
aS'-570'
p578
aS'72\r\n'
p579
aa(lp580
S'-2'
p581
ag64
aS'-566'
p582
aS'74\r\n'
p583
aa(lp584
S'-2'
p585
aS'8'
p586
aS'-576'
p587
aS'71\r\n'
p588
aa(lp589
S'-1'
p590
ag20
aS'-583'
p591
aS'72\r\n'
p592
aa(lp593
S'-3'
p594
aS'-1'
p595
aS'-577'
p596
aS'72\r\n'
p597
aa(lp598
S'-6'
p599
ag74
aS'-571'
p600
aS'76\r\n'
p601
aa(lp602
S'-6'
p603
aS'-1'
p604
aS'-571'
p605
aS'71\r\n'
p606
aa(lp607
S'-2'
p608
aS'-2'
p609
aS'-574'
p610
aS'74\r\n'
p611
aa(lp612
S'-4'
p613
ag20
aS'-574'
p614
aS'76\r\n'
p615
aa(lp616
S'-2'
p617
ag20
aS'-579'
p618
aS'72\r\n'
p619
aa(lp620
S'-9'
p621
aS'-6'
p622
aS'-576'
p623
aS'75\r\n'
p624
aa(lp625
S'-10'
p626
aS'-9'
p627
aS'-565'
p628
aS'75\r\n'
p629
aa(lp630
S'-4'
p631
aS'-9'
p632
aS'-563'
p633
aS'75\r\n'
p634
aa(lp635
S'-2'
p636
aS'-9'
p637
aS'-561'
p638
aS'73\r\n'
p639
aa(lp640
S'-9'
p641
aS'-6'
p642
aS'-558'
p643
aS'74\r\n'
p644
aa(lp645
S'-6'
p646
aS'-4'
p647
aS'-551'
p648
aS'71\r\n'
p649
aa(lp650
S'-2'
p651
aS'-1'
p652
aS'-552'
p653
aS'72\r\n'
p654
aa(lp655
S'-5'
p656
aS'-5'
p657
aS'-557'
p658
aS'76\r\n'
p659
aa(lp660
g20
aS'-8'
p661
aS'-558'
p662
aS'74\r\n'
p663
aa(lp664
g20
aS'-1'
p665
aS'-561'
p666
aS'76\r\n'
p667
aa(lp668
S'-2'
p669
ag10
aS'-559'
p670
aS'72\r\n'
p671
aa(lp672
S'-3'
p673
ag74
aS'-565'
p674
aS'75\r\n'
p675
aa(lp676
S'-7'
p677
ag20
aS'-567'
p678
aS'71\r\n'
p679
aa(lp680
S'-5'
p681
ag69
aS'-563'
p682
aS'74\r\n'
p683
aa(lp684
S'-5'
p685
ag20
aS'-566'
p686
aS'73\r\n'
p687
aa(lp688
S'-4'
p689
ag74
aS'-572'
p690
aS'73\r\n'
p691
aa(lp692
S'-6'
p693
ag64
aS'-569'
p694
aS'73\r\n'
p695
aa(lp696
S'-5'
p697
ag15
aS'-565'
p698
aS'72\r\n'
p699
aa(lp700
S'-2'
p701
ag128
aS'-566'
p702
aS'71\r\n'
p703
aa(lp704
S'-1'
p705
ag69
aS'-574'
p706
aS'76\r\n'
p707
aa(lp708
g20
ag10
aS'-570'
p709
aS'74\r\n'
p710
aa(lp711
S'-2'
p712
ag128
aS'-570'
p713
aS'72\r\n'
p714
aa(lp715
S'-1'
p716
ag69
aS'-570'
p717
aS'76\r\n'
p718
aa(lp719
g69
ag64
aS'-574'
p720
aS'73\r\n'
p721
aa(lp722
g20
ag20
aS'-577'
p723
aS'72\r\n'
p724
aa(lp725
S'-5'
p726
ag20
aS'-579'
p727
aS'72\r\n'
p728
aa(lp729
S'-7'
p730
ag20
aS'-573'
p731
aS'74\r\n'
p732
aa(lp733
S'-3'
p734
aS'-1'
p735
aS'-572'
p736
aS'74\r\n'
p737
aa(lp738
S'-1'
p739
aS'-7'
p740
aS'-572'
p741
aS'73\r\n'
p742
aa(lp743
S'-5'
p744
aS'-5'
p745
aS'-568'
p746
aS'72\r\n'
p747
aa(lp748
S'-7'
p749
aS'-3'
p750
aS'-571'
p751
aS'71\r\n'
p752
aa(lp753
S'-7'
p754
aS'-3'
p755
aS'-574'
p756
aS'73\r\n'
p757
aa(lp758
S'-9'
p759
ag20
aS'-573'
p760
aS'76\r\n'
p761
aa(lp762
S'-8'
p763
aS'-2'
p764
aS'-571'
p765
aS'71\r\n'
p766
aa(lp767
S'-4'
p768
ag69
aS'-566'
p769
aS'75\r\n'
p770
aa(lp771
S'-3'
p772
aS'-3'
p773
aS'-567'
p774
aS'76\r\n'
p775
aa(lp776
S'-3'
p777
aS'-2'
p778
aS'-574'
p779
aS'73\r\n'
p780
aa(lp781
S'-2'
p782
aS'-3'
p783
aS'-577'
p784
aS'76\r\n'
p785
aa(lp786
S'-3'
p787
aS'-1'
p788
aS'-574'
p789
aS'72\r\n'
p790
aa(lp791
g20
aS'-6'
p792
aS'-569'
p793
aS'75\r\n'
p794
aa(lp795
g69
aS'-6'
p796
aS'-569'
p797
aS'75\r\n'
p798
aa(lp799
g74
aS'-3'
p800
aS'-573'
p801
aS'73\r\n'
p802
aa(lp803
S'-3'
p804
ag69
aS'-578'
p805
aS'71\r\n'
p806
aa(lp807
S'-6'
p808
ag74
aS'-574'
p809
aS'74\r\n'
p810
aa(lp811
S'-1'
p812
ag20
aS'-565'
p813
aS'72\r\n'
p814
aa(lp815
g128
aS'-1'
p816
aS'-563'
p817
aS'72\r\n'
p818
aa(lp819
g586
ag69
aS'-567'
p820
aS'72\r\n'
p821
aa(lp822
g20
ag20
aS'-563'
p823
aS'76\r\n'
p824
aa(lp825
S'-2'
p826
ag74
aS'-556'
p827
aS'73\r\n'
p828
aa(lp829
S'-6'
p830
ag64
aS'-566'
p831
aS'75\r\n'
p832
aa(lp833
S'-6'
p834
ag586
aS'-562'
p835
aS'71\r\n'
p836
aa(lp837
S'-8'
p838
ag64
aS'-566'
p839
aS'73\r\n'
p840
aa(lp841
S'-3'
p842
ag69
aS'-559'
p843
aS'74\r\n'
p844
aa(lp845
S'-4'
p846
ag69
aS'-556'
p847
aS'76\r\n'
p848
aa(lp849
S'-3'
p850
ag69
aS'-564'
p851
aS'74\r\n'
p852
aa(lp853
S'-4'
p854
ag74
aS'-566'
p855
aS'76\r\n'
p856
aa(lp857
S'-4'
p858
ag74
aS'-567'
p859
aS'71\r\n'
p860
aa(lp861
S'-3'
p862
aS'-1'
p863
aS'-563'
p864
aS'71\r\n'
p865
aa(lp866
S'-5'
p867
ag10
aS'-565'
p868
aS'74\r\n'
p869
aa(lp870
S'-5'
p871
ag69
aS'-562'
p872
aS'72\r\n'
p873
aa(lp874
S'-3'
p875
aS'-2'
p876
aS'-559'
p877
aS'73\r\n'
p878
aa(lp879
S'-6'
p880
aS'-4'
p881
aS'-564'
p882
aS'74\r\n'
p883
aa(lp884
S'-3'
p885
aS'-3'
p886
aS'-565'
p887
aS'76\r\n'
p888
aa(lp889
S'-2'
p890
aS'-5'
p891
aS'-561'
p892
aS'72\r\n'
p893
aa(lp894
S'-3'
p895
aS'-3'
p896
aS'-556'
p897
aS'73\r\n'
p898
aa(lp899
S'-3'
p900
aS'-3'
p901
aS'-561'
p902
aS'75\r\n'
p903
aa(lp904
g74
aS'-2'
p905
aS'-566'
p906
aS'76\r\n'
p907
aa(lp908
g20
aS'-1'
p909
aS'-560'
p910
aS'76\r\n'
p911
aa(lp912
g20
ag20
aS'-560'
p913
aS'72\r\n'
p914
aa(lp915
g10
aS'-5'
p916
aS'-563'
p917
aS'74\r\n'
p918
aa(lp919
g69
ag20
aS'-564'
p920
aS'74\r\n'
p921
aa(lp922
g74
ag10
aS'-569'
p923
aS'74\r\n'
p924
aa(lp925
S'-1'
p926
ag128
aS'-577'
p927
aS'76\r\n'
p928
aa(lp929
g20
ag64
aS'-570'
p930
aS'74\r\n'
p931
aa(lp932
S'-6'
p933
ag128
aS'-564'
p934
aS'71\r\n'
p935
aa(lp936
S'-5'
p937
ag69
aS'-556'
p938
aS'74\r\n'
p939
aa(lp940
S'-6'
p941
ag20
aS'-565'
p942
aS'72\r\n'
p943
aa(lp944
S'-8'
p945
ag74
aS'-570'
p946
aS'72\r\n'
p947
aa(lp948
S'-8'
p949
ag64
aS'-566'
p950
aS'73\r\n'
p951
aa(lp952
S'-4'
p953
ag128
aS'-564'
p954
aS'72\r\n'
p955
aa(lp956
S'-1'
p957
ag5
aS'-565'
p958
aS'75\r\n'
p959
aa(lp960
S'-5'
p961
ag128
aS'-568'
p962
aS'75\r\n'
p963
aa(lp964
S'-4'
p965
ag64
aS'-559'
p966
aS'72\r\n'
p967
aa(lp968
g20
aS'-1'
p969
aS'-569'
p970
aS'72\r\n'
p971
aa(lp972
S'-5'
p973
ag20
aS'-565'
p974
aS'74\r\n'
p975
aa(lp976
g20
ag20
aS'-570'
p977
aS'74\r\n'
p978
aa(lp979
g74
aS'-5'
p980
aS'-566'
p981
aS'71\r\n'
p982
aa(lp983
g69
aS'-5'
p984
aS'-558'
p985
aS'73\r\n'
p986
aa(lp987
S'-1'
p988
aS'-3'
p989
aS'-551'
p990
aS'71\r\n'
p991
aa(lp992
S'-3'
p993
ag20
aS'-554'
p994
aS'71\r\n'
p995
aa(lp996
S'-9'
p997
ag20
aS'-561'
p998
aS'72\r\n'
p999
aa(lp1000
S'-5'
p1001
ag69
aS'-561'
p1002
aS'72\r\n'
p1003
aa(lp1004
S'-4'
p1005
ag10
aS'-561'
p1006
aS'75\r\n'
p1007
aa(lp1008
S'-3'
p1009
ag20
aS'-559'
p1010
aS'74\r\n'
p1011
aa(lp1012
S'-1'
p1013
ag20
aS'-561'
p1014
aS'76\r\n'
p1015
aa(lp1016
S'-1'
p1017
aS'-6'
p1018
aS'-562'
p1019
aS'73\r\n'
p1020
aa(lp1021
S'-3'
p1022
aS'-1'
p1023
aS'-560'
p1024
aS'73\r\n'
p1025
aa(lp1026
S'-2'
p1027
ag74
aS'-558'
p1028
aS'75\r\n'
p1029
aa(lp1030
S'-4'
p1031
ag20
aS'-558'
p1032
aS'75\r\n'
p1033
aa(lp1034
S'-1'
p1035
aS'-5'
p1036
aS'-560'
p1037
aS'75\r\n'
p1038
aa(lp1039
S'-1'
p1040
aS'-1'
p1041
aS'-564'
p1042
aS'75\r\n'
p1043
aa(lp1044
S'-6'
p1045
aS'-5'
p1046
aS'-564'
p1047
aS'74\r\n'
p1048
aa(lp1049
S'-7'
p1050
aS'-1'
p1051
aS'-553'
p1052
aS'74\r\n'
p1053
aa(lp1054
S'-4'
p1055
ag74
aS'-558'
p1056
aS'71\r\n'
p1057
aa(lp1058
S'-1'
p1059
ag10
aS'-558'
p1060
aS'72\r\n'
p1061
aa(lp1062
S'-2'
p1063
ag5
aS'-564'
p1064
aS'75\r\n'
p1065
aa(lp1066
S'-3'
p1067
ag20
aS'-571'
p1068
aS'71\r\n'
p1069
aa(lp1070
S'-3'
p1071
ag10
aS'-570'
p1072
aS'73\r\n'
p1073
aa(lp1074
S'-1'
p1075
ag69
aS'-563'
p1076
aS'76\r\n'
p1077
aa(lp1078
S'-2'
p1079
ag69
aS'-565'
p1080
aS'76\r\n'
p1081
aa(lp1082
g20
aS'-1'
p1083
aS'-569'
p1084
aS'76\r\n'
p1085
aa(lp1086
S'-5'
p1087
aS'-3'
p1088
aS'-571'
p1089
aS'72\r\n'
p1090
aa(lp1091
S'-9'
p1092
ag20
aS'-576'
p1093
aS'72\r\n'
p1094
aa(lp1095
S'-5'
p1096
ag10
aS'-573'
p1097
aS'74\r\n'
p1098
aa(lp1099
g20
ag20
aS'-571'
p1100
aS'75\r\n'
p1101
aa(lp1102
g69
aS'-2'
p1103
aS'-574'
p1104
aS'75\r\n'
p1105
aa(lp1106
S'-1'
p1107
aS'-2'
p1108
aS'-566'
p1109
aS'73\r\n'
p1110
aa(lp1111
g10
aS'-1'
p1112
aS'-567'
p1113
aS'72\r\n'
p1114
aa(lp1115
g20
aS'-1'
p1116
aS'-565'
p1117
aS'74\r\n'
p1118
aa(lp1119
g20
aS'-2'
p1120
aS'-560'
p1121
aS'73\r\n'
p1122
aa(lp1123
S'-2'
p1124
aS'-2'
p1125
aS'-558'
p1126
aS'71\r\n'
p1127
aa(lp1128
S'-2'
p1129
ag20
aS'-565'
p1130
aS'76\r\n'
p1131
aa(lp1132
S'-3'
p1133
ag69
aS'-562'
p1134
aS'74\r\n'
p1135
aa(lp1136
g74
ag64
aS'-566'
p1137
aS'74\r\n'
p1138
aa(lp1139
S'-3'
p1140
ag69
aS'-568'
p1141
aS'74\r\n'
p1142
aa(lp1143
g20
ag20
aS'-561'
p1144
aS'75\r\n'
p1145
aa(lp1146
g20
ag20
aS'-562'
p1147
aS'75\r\n'
p1148
aa(lp1149
S'-4'
p1150
ag64
aS'-557'
p1151
aS'74\r\n'
p1152
aa(lp1153
S'-2'
p1154
ag74
aS'-548'
p1155
aS'72\r\n'
p1156
aa(lp1157
g20
ag20
aS'-555'
p1158
aS'72\r\n'
p1159
aa(lp1160
S'-1'
p1161
aS'-2'
p1162
aS'-551'
p1163
aS'73\r\n'
p1164
aa(lp1165
S'-2'
p1166
aS'-2'
p1167
aS'-550'
p1168
aS'74\r\n'
p1169
aa(lp1170
g20
ag20
aS'-551'
p1171
aS'72\r\n'
p1172
aa(lp1173
g20
ag64
aS'-563'
p1174
aS'71\r\n'
p1175
aa(lp1176
S'-2'
p1177
ag15
aS'-565'
p1178
aS'74\r\n'
p1179
aa(lp1180
S'-3'
p1181
ag128
aS'-565'
p1182
aS'76\r\n'
p1183
aa(lp1184
S'-5'
p1185
ag128
aS'-568'
p1186
aS'73\r\n'
p1187
aa(lp1188
S'-4'
p1189
ag69
aS'-569'
p1190
aS'76\r\n'
p1191
aa(lp1192
S'-4'
p1193
ag64
aS'-562'
p1194
aS'72\r\n'
p1195
aa(lp1196
S'4\r\n'
p1197
aa(lp1198
S'-7'
p1199
aS'-1'
p1200
aS'-568'
p1201
aS'76\r\n'
p1202
aa(lp1203
S'-7'
p1204
ag20
aS'-573'
p1205
aS'73\r\n'
p1206
aa(lp1207
S'-7'
p1208
ag74
aS'-567'
p1209
aS'75\r\n'
p1210
aa(lp1211
S'-4'
p1212
ag20
aS'-568'
p1213
aS'75\r\n'
p1214
aa(lp1215
S'-5'
p1216
ag74
aS'-569'
p1217
aS'72\r\n'
p1218
aa(lp1219
S'-6'
p1220
ag74
aS'-572'
p1221
aS'73\r\n'
p1222
aa(lp1223
g74
aS'-2'
p1224
aS'-566'
p1225
aS'71\r\n'
p1226
aa(lp1227
g20
aS'-5'
p1228
aS'-571'
p1229
aS'73\r\n'
p1230
aa(lp1231
S'-1'
p1232
aS'-3'
p1233
aS'-567'
p1234
aS'74\r\n'
p1235
aa(lp1236
S'-7'
p1237
aS'-1'
p1238
aS'-568'
p1239
aS'76\r\n'
p1240
aa(lp1241
S'-7'
p1242
ag20
aS'-573'
p1243
aS'73\r\n'
p1244
aa(lp1245
S'-7'
p1246
ag74
aS'-567'
p1247
aS'75\r\n'
p1248
aa(lp1249
S'-4'
p1250
ag20
aS'-568'
p1251
aS'75\r\n'
p1252
aa(lp1253
S'-5'
p1254
ag74
aS'-569'
p1255
aS'72\r\n'
p1256
aa(lp1257
S'-6'
p1258
ag74
aS'-572'
p1259
aS'73\r\n'
p1260
aa(lp1261
S'-5'
p1262
ag15
aS'-561'
p1263
aS'73\r\n'
p1264
aa(lp1265
S'-5'
p1266
ag5
aS'-556'
p1267
aS'75\r\n'
p1268
aa(lp1269
S'-1'
p1270
ag20
aS'-556'
p1271
aS'74\r\n'
p1272
aa(lp1273
g74
aS'-4'
p1274
aS'-553'
p1275
aS'74\r\n'
p1276
aa(lp1277
g20
aS'-5'
p1278
aS'-555'
p1279
aS'75\r\n'
p1280
aa(lp1281
S'-1'
p1282
aS'-3'
p1283
aS'-564'
p1284
aS'74\r\n'
p1285
aa(lp1286
g5
aS'-2'
p1287
aS'-567'
p1288
aS'75\r\n'
p1289
aa(lp1290
g5
aS'-4'
p1291
aS'-562'
p1292
aS'72\r\n'
p1293
aa(lp1294
g5
aS'-3'
p1295
aS'-566'
p1296
aS'72\r\n'
p1297
aa(lp1298
g69
aS'-6'
p1299
aS'-573'
p1300
aS'72\r\n'
p1301
aa(lp1302
S'-2'
p1303
aS'-6'
p1304
aS'-564'
p1305
aS'76\r\n'
p1306
aa(lp1307
S'-4'
p1308
aS'-6'
p1309
aS'-560'
p1310
aS'71\r\n'
p1311
aa(lp1312
S'-3'
p1313
aS'-4'
p1314
aS'-563'
p1315
aS'74\r\n'
p1316
aa(lp1317
S'-3'
p1318
aS'-1'
p1319
aS'-570'
p1320
aS'72\r\n'
p1321
aa(lp1322
g10
ag64
aS'-567'
p1323
aS'76\r\n'
p1324
aa(lp1325
g5
ag69
aS'-566'
p1326
aS'74\r\n'
p1327
aa(lp1328
g69
ag69
aS'-573'
p1329
aS'75\r\n'
p1330
aa(lp1331
g10
aS'-3'
p1332
aS'-567'
p1333
aS'76\r\n'
p1334
aa(lp1335
g10
aS'-2'
p1336
aS'-562'
p1337
aS'72\r\n'
p1338
aa(lp1339
g128
ag20
aS'-554'
p1340
aS'72\r\n'
p1341
aa(lp1342
g20
ag74
aS'-558'
p1343
aS'76\r\n'
p1344
aa(lp1345
S'-1'
p1346
ag74
aS'-556'
p1347
aS'73\r\n'
p1348
aa(lp1349
S'-4'
p1350
ag20
aS'-561'
p1351
aS'76\r\n'
p1352
aa(lp1353
S'-4'
p1354
ag74
aS'-565'
p1355
aS'73\r\n'
p1356
aa(lp1357
S'-2'
p1358
ag128
aS'-568'
p1359
aS'71\r\n'
p1360
aa(lp1361
g69
ag5
aS'-567'
p1362
aS'73\r\n'
p1363
aa(lp1364
S'-1'
p1365
ag69
aS'-567'
p1366
aS'71\r\n'
p1367
aa(lp1368
g20
ag5
aS'-568'
p1369
aS'71\r\n'
p1370
aa(lp1371
g74
ag586
aS'-571'
p1372
aS'71\r\n'
p1373
aa(lp1374
S'-3'
p1375
ag128
aS'-570'
p1376
aS'73\r\n'
p1377
aa(lp1378
S'-6'
p1379
ag64
aS'-574'
p1380
aS'76\r\n'
p1381
aa(lp1382
g69
ag64
aS'-578'
p1383
aS'71\r\n'
p1384
aa(lp1385
S'-1'
p1386
ag20
aS'-582'
p1387
aS'74\r\n'
p1388
aa(lp1389
S'-2'
p1390
ag128
aS'-577'
p1391
aS'76\r\n'
p1392
aa(lp1393
g20
ag20
aS'-573'
p1394
aS'73\r\n'
p1395
aa(lp1396
g10
aS'-3'
p1397
aS'-568'
p1398
aS'72\r\n'
p1399
aa(lp1400
g10
aS'-5'
p1401
aS'-564'
p1402
aS'71\r\n'
p1403
aa(lp1404
g128
aS'-4'
p1405
aS'-569'
p1406
aS'72\r\n'
p1407
aa(lp1408
g74
aS'-2'
p1409
aS'-565'
p1410
aS'75\r\n'
p1411
aa(lp1412
S'-3'
p1413
aS'-3'
p1414
aS'-559'
p1415
aS'73\r\n'
p1416
aa(lp1417
S'-4'
p1418
ag20
aS'-563'
p1419
aS'74\r\n'
p1420
aa(lp1421
S'-2'
p1422
ag20
aS'-561'
p1423
aS'74\r\n'
p1424
aa(lp1425
g74
ag20
aS'-560'
p1426
aS'75\r\n'
p1427
aa(lp1428
g20
aS'-3'
p1429
aS'-559'
p1430
aS'73\r\n'
p1431
aa(lp1432
S'-4'
p1433
aS'-1'
p1434
aS'-561'
p1435
aS'76\r\n'
p1436
aa(lp1437
S'-7'
p1438
aS'-3'
p1439
aS'-562'
p1440
aS'76\r\n'
p1441
aa(lp1442
S'-9'
p1443
aS'-1'
p1444
aS'-557'
p1445
aS'73\r\n'
p1446
aa(lp1447
S'-6'
p1448
ag20
aS'-558'
p1449
aS'73\r\n'
p1450
aa(lp1451
S'-1'
p1452
aS'-1'
p1453
aS'-569'
p1454
aS'76\r\n'
p1455
aa(lp1456
g64
ag69
aS'-559'
p1457
aS'71\r\n'
p1458
aa(lp1459
g20
ag69
aS'-559'
p1460
aS'71\r\n'
p1461
aa(lp1462
g69
ag20
aS'-551'
p1463
aS'71\r\n'
p1464
aa(lp1465
g69
ag64
aS'-543'
p1466
aS'75\r\n'
p1467
aa(lp1468
S'-3'
p1469
ag74
aS'-548'
p1470
aS'76\r\n'
p1471
aa(lp1472
S'-1'
p1473
ag20
aS'-552'
p1474
aS'72\r\n'
p1475
aa(lp1476
g10
ag20
aS'-552'
p1477
aS'73\r\n'
p1478
aa(lp1479
g5
ag20
aS'-558'
p1480
aS'71\r\n'
p1481
aa(lp1482
g64
ag10
aS'-560'
p1483
aS'72\r\n'
p1484
aa(lp1485
g64
ag64
aS'-561'
p1486
aS'71\r\n'
p1487
aa(lp1488
g20
ag128
aS'-566'
p1489
aS'74\r\n'
p1490
aa(lp1491
g74
ag64
aS'-565'
p1492
aS'74\r\n'
p1493
aa(lp1494
S'-3'
p1495
ag5
aS'-566'
p1496
aS'72\r\n'
p1497
aa(lp1498
S'-5'
p1499
aS'-2'
p1500
aS'-560'
p1501
aS'74\r\n'
p1502
aa(lp1503
S'-8'
p1504
ag20
aS'-570'
p1505
aS'75\r\n'
p1506
aa(lp1507
S'-6'
p1508
ag15
aS'-569'
p1509
aS'75\r\n'
p1510
aa(lp1511
S'-5'
p1512
ag74
aS'-559'
p1513
aS'74\r\n'
p1514
aa(lp1515
g20
ag64
aS'-560'
p1516
aS'72\r\n'
p1517
aa(lp1518
g20
ag69
aS'-558'
p1519
aS'71\r\n'
p1520
aa(lp1521
S'-3'
p1522
ag20
aS'-563'
p1523
aS'72\r\n'
p1524
aa(lp1525
S'-1'
p1526
ag64
aS'-571'
p1527
aS'74\r\n'
p1528
aa(lp1529
S'-1'
p1530
ag69
aS'-571'
p1531
aS'71\r\n'
p1532
aa(lp1533
g74
ag277
aS'-568'
p1534
aS'75\r\n'
p1535
aa(lp1536
g20
ag277
aS'-564'
p1537
aS'75\r\n'
p1538
aa(lp1539
S'-1'
p1540
ag64
aS'-564'
p1541
aS'75\r\n'
p1542
aa(lp1543
g20
ag10
aS'-573'
p1544
aS'76\r\n'
p1545
aa(lp1546
g20
ag5
aS'-578'
p1547
aS'71\r\n'
p1548
aa(lp1549
g10
ag10
aS'-572'
p1550
aS'72\r\n'
p1551
aa(lp1552
g64
ag20
aS'-573'
p1553
aS'76\r\n'
p1554
aa(lp1555
g10
ag20
aS'-567'
p1556
aS'75\r\n'
p1557
aa(lp1558
g20
ag10
aS'-563'
p1559
aS'71\r\n'
p1560
aa(lp1561
g20
ag586
aS'-558'
p1562
aS'74\r\n'
p1563
aa(lp1564
S'-4'
p1565
ag20
aS'-554'
p1566
aS'75\r\n'
p1567
aa(lp1568
S'-7'
p1569
ag69
aS'-555'
p1570
aS'73\r\n'
p1571
aa(lp1572
S'-7'
p1573
ag10
aS'-556'
p1574
aS'75\r\n'
p1575
aa(lp1576
S'-4'
p1577
ag64
aS'-551'
p1578
aS'71\r\n'
p1579
aa(lp1580
S'-2'
p1581
ag10
aS'-563'
p1582
aS'76\r\n'
p1583
aa(lp1584
S'-1'
p1585
ag128
aS'-560'
p1586
aS'74\r\n'
p1587
aa(lp1588
g74
ag10
aS'-569'
p1589
aS'74\r\n'
p1590
aa(lp1591
S'-2'
p1592
ag74
aS'-561'
p1593
aS'71\r\n'
p1594
aa(lp1595
g74
ag20
aS'-553'
p1596
aS'74\r\n'
p1597
aa(lp1598
g20
ag74
aS'-554'
p1599
aS'72\r\n'
p1600
aa(lp1601
S'-1'
p1602
ag5
aS'-558'
p1603
aS'75\r\n'
p1604
aa(lp1605
S'-5'
p1606
ag64
aS'-562'
p1607
aS'73\r\n'
p1608
aa(lp1609
S'-8'
p1610
ag5
aS'-567'
p1611
aS'71\r\n'
p1612
aa(lp1613
S'-4'
p1614
ag69
aS'-562'
p1615
aS'73\r\n'
p1616
aa(lp1617
S'-4'
p1618
ag10
aS'-561'
p1619
aS'71\r\n'
p1620
aa(lp1621
S'-6'
p1622
ag586
aS'-559'
p1623
aS'72\r\n'
p1624
aa(lp1625
S'-8'
p1626
aS'17'
p1627
aS'-556'
p1628
aS'71\r\n'
p1629
aa(lp1630
S'-8'
p1631
aS'17'
p1632
aS'-557'
p1633
aS'76\r\n'
p1634
aa(lp1635
S'-11'
p1636
aS'19'
p1637
aS'-557'
p1638
aS'74\r\n'
p1639
aa(lp1640
S'-8'
p1641
aS'26'
p1642
aS'-554'
p1643
aS'74\r\n'
p1644
aa(lp1645
S'-11'
p1646
aS'26'
p1647
aS'-560'
p1648
aS'71\r\n'
p1649
aa(lp1650
S'-6'
p1651
aS'23'
p1652
aS'-565'
p1653
aS'76\r\n'
p1654
aa(lp1655
g74
aS'13'
p1656
aS'-564'
p1657
aS'72\r\n'
p1658
aa(lp1659
g277
aS'-7'
p1660
aS'-561'
p1661
aS'73\r\n'
p1662
aa(lp1663
S'22'
p1664
aS'-37'
p1665
aS'-560'
p1666
aS'76\r\n'
p1667
aa(lp1668
S'25'
p1669
aS'-55'
p1670
aS'-565'
p1671
aS'74\r\n'
p1672
aa(lp1673
S'20'
p1674
aS'-54'
p1675
aS'-563'
p1676
aS'71\r\n'
p1677
aa(lp1678
S'14'
p1679
aS'-20'
p1680
aS'-559'
p1681
aS'71\r\n'
p1682
aa(lp1683
g5
aS'17'
p1684
aS'-567'
p1685
aS'71\r\n'
p1686
aa(lp1687
S'-7'
p1688
aS'34'
p1689
aS'-570'
p1690
aS'76\r\n'
p1691
aa(lp1692
S'-17'
p1693
aS'55'
p1694
aS'-557'
p1695
aS'74\r\n'
p1696
aa(lp1697
S'-20'
p1698
aS'57'
p1699
aS'-564'
p1700
aS'75\r\n'
p1701
aa(lp1702
S'-15'
p1703
aS'34'
p1704
aS'-571'
p1705
aS'73\r\n'
p1706
aa(lp1707
g20
aS'10'
p1708
aS'-548'
p1709
aS'73\r\n'
p1710
aa(lp1711
S'15'
p1712
aS'-28'
p1713
aS'-568'
p1714
aS'73\r\n'
p1715
aa(lp1716
S'19'
p1717
aS'-42'
p1718
aS'-561'
p1719
aS'76\r\n'
p1720
aa(lp1721
S'25'
p1722
aS'-57'
p1723
aS'-555'
p1724
aS'74\r\n'
p1725
aa(lp1726
S'22'
p1727
aS'-53'
p1728
aS'-552'
p1729
aS'73\r\n'
p1730
aa(lp1731
g277
aS'-46'
p1732
aS'-570'
p1733
aS'75\r\n'
p1734
aa(lp1735
S'-1'
p1736
aS'-16'
p1737
aS'-562'
p1738
aS'74\r\n'
p1739
aa(lp1740
S'-4'
p1741
aS'11'
p1742
aS'-565'
p1743
aS'74\r\n'
p1744
aa(lp1745
S'-11'
p1746
aS'25'
p1747
aS'-550'
p1748
aS'72\r\n'
p1749
aa(lp1750
S'-16'
p1751
aS'24'
p1752
aS'-564'
p1753
aS'74\r\n'
p1754
aa(lp1755
S'-10'
p1756
aS'23'
p1757
aS'-562'
p1758
aS'74\r\n'
p1759
aa(lp1760
S'-8'
p1761
aS'14'
p1762
aS'-558'
p1763
aS'75\r\n'
p1764
aa(lp1765
S'-6'
p1766
ag20
aS'-566'
p1767
aS'71\r\n'
p1768
aa(lp1769
S'-4'
p1770
aS'-2'
p1771
aS'-572'
p1772
aS'76\r\n'
p1773
aa(lp1774
g20
aS'-5'
p1775
aS'-563'
p1776
aS'73\r\n'
p1777
aa(lp1778
g5
aS'-9'
p1779
aS'-562'
p1780
aS'73\r\n'
p1781
aa(lp1782
S'-514'
p1783
aS'350'
p1784
aS'-556'
p1785
aS'76\r\n'
p1786
aa(lp1787
S'-500'
p1788
aS'972'
p1789
aS'-533'
p1790
aS'73\r\n'
p1791
aa(lp1792
S'120'
p1793
aS'-119'
p1794
aS'-559'
p1795
aS'76\r\n'
p1796
aa(lp1797
S'300'
p1798
aS'-1124'
p1799
aS'-576'
p1800
aS'74\r\n'
p1801
aa(lp1802
S'239'
p1803
aS'-492'
p1804
aS'-518'
p1805
aS'71\r\n'
p1806
aa(lp1807
S'72'
p1808
aS'-413'
p1809
aS'-510'
p1810
aS'74\r\n'
p1811
aa(lp1812
S'20'
p1813
aS'-67'
p1814
aS'-436'
p1815
aS'71\r\n'
p1816
aa(lp1817
S'-98'
p1818
aS'190'
p1819
aS'-561'
p1820
aS'73\r\n'
p1821
aa(lp1822
S'-129'
p1823
aS'40'
p1824
aS'-505'
p1825
aS'72\r\n'
p1826
aa(lp1827
S'-271'
p1828
aS'-89'
p1829
aS'-593'
p1830
aS'72\r\n'
p1831
aa(lp1832
S'-236'
p1833
aS'100'
p1834
aS'-636'
p1835
aS'72\r\n'
p1836
aa(lp1837
S'-43'
p1838
aS'47'
p1839
aS'-392'
p1840
aS'75\r\n'
p1841
aa(lp1842
S'245'
p1843
aS'-82'
p1844
aS'-288'
p1845
aS'74\r\n'
p1846
aa(lp1847
S'512'
p1848
aS'-386'
p1849
aS'-220'
p1850
aS'74\r\n'
p1851
aa(lp1852
S'471'
p1853
aS'-449'
p1854
aS'-295'
p1855
aS'71\r\n'
p1856
aa(lp1857
S'276'
p1858
aS'-377'
p1859
aS'-328'
p1860
aS'76\r\n'
p1861
aa(lp1862
S'-103'
p1863
aS'-303'
p1864
aS'-404'
p1865
aS'72\r\n'
p1866
aa(lp1867
S'-238'
p1868
aS'-244'
p1869
aS'-546'
p1870
aS'76\r\n'
p1871
aa(lp1872
S'-164'
p1873
aS'-194'
p1874
aS'-610'
p1875
aS'75\r\n'
p1876
aa(lp1877
g586
aS'-167'
p1878
aS'-558'
p1879
aS'75\r\n'
p1880
aa(lp1881
S'336'
p1882
aS'-178'
p1883
aS'-473'
p1884
aS'72\r\n'
p1885
aa(lp1886
S'926'
p1887
aS'-346'
p1888
aS'-163'
p1889
aS'72\r\n'
p1890
aa(lp1891
S'1366'
p1892
aS'-691'
p1893
aS'213'
p1894
aS'75\r\n'
p1895
aa(lp1896
S'1425'
p1897
aS'-829'
p1898
aS'1421'
p1899
aS'72\r\n'
p1900
aa(lp1901
S'735'
p1902
aS'-368'
p1903
aS'2530'
p1904
aS'71\r\n'
p1905
aa(lp1906
S'-229'
p1907
aS'1108'
p1908
aS'2355'
p1909
aS'71\r\n'
p1910
aa(lp1911
S'-956'
p1912
aS'2598'
p1913
aS'677'
p1914
aS'74\r\n'
p1915
aa(lp1916
S'-1595'
p1917
aS'2858'
p1918
aS'-1460'
p1919
aS'76\r\n'
p1920
aa(lp1921
S'-1450'
p1922
aS'2828'
p1923
aS'-2949'
p1924
aS'74\r\n'
p1925
aa(lp1926
S'-1138'
p1927
aS'2682'
p1928
aS'-2887'
p1929
aS'74\r\n'
p1930
aa(lp1931
S'-763'
p1932
aS'2110'
p1933
aS'-1853'
p1934
aS'74\r\n'
p1935
aa(lp1936
S'-629'
p1937
aS'853'
p1938
aS'-856'
p1939
aS'76\r\n'
p1940
aa(lp1941
S'-428'
p1942
aS'-75'
p1943
aS'-368'
p1944
aS'73\r\n'
p1945
aa(lp1946
S'-458'
p1947
aS'-179'
p1948
aS'-296'
p1949
aS'73\r\n'
p1950
aa(lp1951
S'-478'
p1952
aS'160'
p1953
aS'-913'
p1954
aS'74\r\n'
p1955
aa(lp1956
S'-417'
p1957
aS'546'
p1958
aS'-1996'
p1959
aS'74\r\n'
p1960
aa(lp1961
S'-288'
p1962
aS'188'
p1963
aS'-2657'
p1964
aS'75\r\n'
p1965
aa(lp1966
S'150'
p1967
aS'-362'
p1968
aS'-2652'
p1969
aS'71\r\n'
p1970
aa(lp1971
S'518'
p1972
aS'-760'
p1973
aS'-2613'
p1974
aS'75\r\n'
p1975
aa(lp1976
S'834'
p1977
aS'-998'
p1978
aS'-2476'
p1979
aS'72\r\n'
p1980
aa(lp1981
S'861'
p1982
aS'-1062'
p1983
aS'-1969'
p1984
aS'73\r\n'
p1985
aa(lp1986
S'381'
p1987
aS'-674'
p1988
aS'-1637'
p1989
aS'75\r\n'
p1990
aa(lp1991
S'415'
p1992
aS'-742'
p1993
aS'-1526'
p1994
aS'72\r\n'
p1995
aa(lp1996
S'324'
p1997
aS'-721'
p1998
aS'-1218'
p1999
aS'72\r\n'
p2000
aa(lp2001
S'241'
p2002
aS'-758'
p2003
aS'-851'
p2004
aS'71\r\n'
p2005
aa(lp2006
S'298'
p2007
aS'-1102'
p2008
aS'-791'
p2009
aS'76\r\n'
p2010
aa(lp2011
S'631'
p2012
aS'-979'
p2013
aS'-974'
p2014
aS'73\r\n'
p2015
aa(lp2016
S'690'
p2017
aS'-438'
p2018
aS'-1452'
p2019
aS'72\r\n'
p2020
aa(lp2021
S'-310'
p2022
aS'69'
p2023
aS'-2172'
p2024
aS'71\r\n'
p2025
aa(lp2026
S'-542'
p2027
aS'330'
p2028
aS'-3037'
p2029
aS'76\r\n'
p2030
aa(lp2031
S'-245'
p2032
aS'248'
p2033
aS'-3491'
p2034
aS'74\r\n'
p2035
aa(lp2036
S'-166'
p2037
aS'59'
p2038
aS'-2161'
p2039
aS'75\r\n'
p2040
aa(lp2041
S'168'
p2042
aS'-313'
p2043
aS'-93'
p2044
aS'72\r\n'
p2045
aa(lp2046
S'-168'
p2047
aS'-1564'
p2048
aS'2163'
p2049
aS'72\r\n'
p2050
aa(lp2051
S'136'
p2052
aS'-1394'
p2053
aS'1769'
p2054
aS'76\r\n'
p2055
aa(lp2056
S'-124'
p2057
aS'-670'
p2058
aS'711'
p2059
aS'74\r\n'
p2060
aa(lp2061
S'-176'
p2062
aS'-452'
p2063
aS'270'
p2064
aS'72\r\n'
p2065
aa(lp2066
S'-424'
p2067
aS'-81'
p2068
aS'-80'
p2069
aS'76\r\n'
p2070
aa(lp2071
S'-390'
p2072
aS'176'
p2073
aS'-221'
p2074
aS'71\r\n'
p2075
aa(lp2076
S'-19'
p2077
aS'142'
p2078
aS'-248'
p2079
aS'71\r\n'
p2080
aa(lp2081
S'212'
p2082
aS'115'
p2083
aS'-110'
p2084
aS'74\r\n'
p2085
aa(lp2086
S'431'
p2087
aS'-1'
p2088
aS'-15'
p2089
aS'73\r\n'
p2090
aa(lp2091
S'183'
p2092
aS'-106'
p2093
aS'414'
p2094
aS'74\r\n'
p2095
aa(lp2096
S'-36'
p2097
aS'461'
p2098
aS'49'
p2099
aS'73\r\n'
p2100
aa(lp2101
S'-315'
p2102
aS'712'
p2103
aS'-394'
p2104
aS'73\r\n'
p2105
aa(lp2106
S'-368'
p2107
aS'803'
p2108
aS'-676'
p2109
aS'73\r\n'
p2110
aa(lp2111
S'-179'
p2112
aS'567'
p2113
aS'-1046'
p2114
aS'72\r\n'
p2115
aa(lp2116
S'-160'
p2117
ag586
aS'-871'
p2118
aS'71\r\n'
p2119
aa(lp2120
S'76'
p2121
aS'-208'
p2122
aS'104'
p2123
aS'72\r\n'
p2124
aa(lp2125
S'137'
p2126
aS'-78'
p2127
aS'1164'
p2128
aS'75\r\n'
p2129
aa(lp2130
S'-269'
p2131
aS'153'
p2132
aS'1909'
p2133
aS'76\r\n'
p2134
aa(lp2135
S'-513'
p2136
aS'943'
p2137
aS'999'
p2138
aS'74\r\n'
p2139
aa(lp2140
S'-379'
p2141
aS'845'
p2142
aS'-432'
p2143
aS'76\r\n'
p2144
aa(lp2145
S'-253'
p2146
aS'542'
p2147
aS'-1849'
p2148
aS'74\r\n'
p2149
aa(lp2150
S'-148'
p2151
aS'-23'
p2152
aS'-2545'
p2153
aS'71\r\n'
p2154
aa(lp2155
S'245'
p2156
aS'-239'
p2157
aS'-1324'
p2158
aS'76\r\n'
p2159
aa(lp2160
S'205'
p2161
aS'131'
p2162
aS'422'
p2163
aS'75\r\n'
p2164
aa(lp2165
S'-70'
p2166
aS'556'
p2167
aS'850'
p2168
aS'74\r\n'
p2169
aa(lp2170
S'-277'
p2171
aS'465'
p2172
aS'-207'
p2173
aS'73\r\n'
p2174
aa(lp2175
S'-352'
p2176
aS'-56'
p2177
aS'-2115'
p2178
aS'74\r\n'
p2179
aa(lp2180
S'-53'
p2181
aS'-675'
p2182
aS'-3325'
p2183
aS'76\r\n'
p2184
aa(lp2185
S'142'
p2186
aS'93'
p2187
aS'-2492'
p2188
aS'76\r\n'
p2189
aa(lp2190
S'29'
p2191
aS'1387'
p2192
aS'-744'
p2193
aS'76\r\n'
p2194
aa(lp2195
S'79'
p2196
aS'1653'
p2197
aS'307'
p2198
aS'71\r\n'
p2199
aa(lp2200
S'-141'
p2201
aS'1193'
p2202
aS'271'
p2203
aS'73\r\n'
p2204
aa(lp2205
S'-79'
p2206
aS'417'
p2207
aS'-506'
p2208
aS'75\r\n'
p2209
aa(lp2210
S'-8'
p2211
aS'-85'
p2212
aS'-932'
p2213
aS'72\r\n'
p2214
aa(lp2215
S'-45'
p2216
aS'-257'
p2217
aS'-1249'
p2218
aS'73\r\n'
p2219
aa(lp2220
S'28'
p2221
aS'-172'
p2222
aS'-1484'
p2223
aS'75\r\n'
p2224
aa(lp2225
S'198'
p2226
aS'157'
p2227
aS'-1219'
p2228
aS'72\r\n'
p2229
aa(lp2230
S'-110'
p2231
aS'177'
p2232
aS'-391'
p2233
aS'71\r\n'
p2234
aa(lp2235
S'-671'
p2236
aS'18'
p2237
aS'-70'
p2238
aS'75\r\n'
p2239
aa(lp2240
S'-584'
p2241
aS'-479'
p2242
aS'-960'
p2243
aS'73\r\n'
p2244
aa(lp2245
S'-435'
p2246
aS'-720'
p2247
aS'-1414'
p2248
aS'76\r\n'
p2249
aa(lp2250
S'-316'
p2251
aS'-675'
p2252
aS'-999'
p2253
aS'73\r\n'
p2254
aa(lp2255
S'-218'
p2256
aS'-891'
p2257
aS'-754'
p2258
aS'75\r\n'
p2259
aa(lp2260
S'-195'
p2261
aS'-978'
p2262
aS'-1278'
p2263
aS'76\r\n'
p2264
aa(lp2265
S'-266'
p2266
aS'-800'
p2267
aS'-2009'
p2268
aS'71\r\n'
p2269
aa(lp2270
S'-184'
p2271
aS'-355'
p2272
aS'-2399'
p2273
aS'72\r\n'
p2274
aa(lp2275
S'-115'
p2276
aS'-38'
p2277
aS'-2045'
p2278
aS'73\r\n'
p2279
aa(lp2280
S'31'
p2281
aS'137'
p2282
aS'-1435'
p2283
aS'76\r\n'
p2284
aa(lp2285
S'56'
p2286
aS'-11'
p2287
aS'-1021'
p2288
aS'75\r\n'
p2289
aa(lp2290
S'240'
p2291
aS'-145'
p2292
aS'-1081'
p2293
aS'71\r\n'
p2294
aa(lp2295
S'567'
p2296
aS'-309'
p2297
aS'-1326'
p2298
aS'73\r\n'
p2299
aa(lp2300
S'564'
p2301
aS'-438'
p2302
aS'-1238'
p2303
aS'72\r\n'
p2304
aa(lp2305
S'23'
p2306
aS'-372'
p2307
aS'-1152'
p2308
aS'71\r\n'
p2309
aa(lp2310
S'-421'
p2311
aS'132'
p2312
aS'-1239'
p2313
aS'75\r\n'
p2314
aa(lp2315
S'-438'
p2316
aS'687'
p2317
aS'-1518'
p2318
aS'75\r\n'
p2319
aa(lp2320
S'-472'
p2321
aS'725'
p2322
aS'-1514'
p2323
aS'76\r\n'
p2324
aa(lp2325
S'-453'
p2326
aS'179'
p2327
aS'-1142'
p2328
aS'74\r\n'
p2329
aa(lp2330
S'-17'
p2331
aS'-404'
p2332
aS'-995'
p2333
aS'72\r\n'
p2334
aa(lp2335
S'284'
p2336
aS'-748'
p2337
aS'-888'
p2338
aS'76\r\n'
p2339
aa(lp2340
S'389'
p2341
aS'-735'
p2342
aS'-633'
p2343
aS'75\r\n'
p2344
aa(lp2345
S'391'
p2346
aS'-233'
p2347
aS'832'
p2348
aS'72\r\n'
p2349
aa(lp2350
S'-7'
p2351
aS'-322'
p2352
aS'853'
p2353
aS'73\r\n'
p2354
aa(lp2355
S'-196'
p2356
aS'-424'
p2357
aS'322'
p2358
aS'76\r\n'
p2359
aa(lp2360
S'-515'
p2361
aS'-497'
p2362
aS'-41'
p2363
aS'73\r\n'
p2364
aa(lp2365
S'-1080'
p2366
aS'-639'
p2367
aS'230'
p2368
aS'76\r\n'
p2369
aa(lp2370
S'-347'
p2371
aS'-66'
p2372
aS'1374'
p2373
aS'76\r\n'
p2374
aa(lp2375
S'-544'
p2376
aS'-220'
p2377
aS'520'
p2378
aS'74\r\n'
p2379
aa(lp2380
S'-520'
p2381
aS'-348'
p2382
aS'171'
p2383
aS'71\r\n'
p2384
aa(lp2385
S'-284'
p2386
aS'-196'
p2387
aS'-112'
p2388
aS'72\r\n'
p2389
aa(lp2390
S'-177'
p2391
aS'-176'
p2392
aS'-250'
p2393
aS'71\r\n'
p2394
aa(lp2395
S'-161'
p2396
aS'-131'
p2397
aS'-330'
p2398
aS'75\r\n'
p2399
aa(lp2400
S'-132'
p2401
aS'-85'
p2402
aS'-441'
p2403
aS'76\r\n'
p2404
aa(lp2405
S'-65'
p2406
aS'-38'
p2407
aS'-496'
p2408
aS'71\r\n'
p2409
aa(lp2410
S'-45'
p2411
aS'-34'
p2412
aS'-503'
p2413
aS'72\r\n'
p2414
aa(lp2415
S'-158'
p2416
aS'-120'
p2417
aS'-546'
p2418
aS'75\r\n'
p2419
aa(lp2420
S'-251'
p2421
aS'-150'
p2422
aS'-540'
p2423
aS'75\r\n'
p2424
aa(lp2425
S'-31'
p2426
aS'-56'
p2427
aS'-549'
p2428
aS'73\r\n'
p2429
aa(lp2430
S'272'
p2431
aS'179'
p2432
aS'-555'
p2433
aS'74\r\n'
p2434
aa(lp2435
S'210'
p2436
aS'135'
p2437
aS'-549'
p2438
aS'73\r\n'
p2439
aa(lp2440
S'149'
p2441
aS'101'
p2442
aS'-563'
p2443
aS'71\r\n'
p2444
aa(lp2445
S'113'
p2446
aS'87'
p2447
aS'-566'
p2448
aS'72\r\n'
p2449
aa(lp2450
S'86'
p2451
aS'73'
p2452
aS'-564'
p2453
aS'71\r\n'
p2454
aa(lp2455
S'71'
p2456
aS'57'
p2457
aS'-569'
p2458
aS'72\r\n'
p2459
aa(lp2460
S'61'
p2461
aS'47'
p2462
aS'-570'
p2463
aS'75\r\n'
p2464
aa(lp2465
S'62'
p2466
aS'47'
p2467
aS'-569'
p2468
aS'75\r\n'
p2469
aa(lp2470
S'70'
p2471
aS'40'
p2472
aS'-578'
p2473
aS'72\r\n'
p2474
aa(lp2475
S'67'
p2476
aS'33'
p2477
aS'-573'
p2478
aS'74\r\n'
p2479
aa(lp2480
S'64'
p2481
aS'25'
p2482
aS'-569'
p2483
aS'75\r\n'
p2484
aa(lp2485
S'63'
p2486
aS'22'
p2487
aS'-569'
p2488
aS'76\r\n'
p2489
aa(lp2490
S'58'
p2491
aS'24'
p2492
aS'-567'
p2493
aS'75\r\n'
p2494
aa(lp2495
S'54'
p2496
aS'31'
p2497
aS'-564'
p2498
aS'76\r\n'
p2499
aa(lp2500
S'54'
p2501
aS'37'
p2502
aS'-557'
p2503
aS'74\r\n'
p2504
aa(lp2505
S'55'
p2506
aS'44'
p2507
aS'-558'
p2508
aS'74\r\n'
p2509
aa(lp2510
S'55'
p2511
aS'42'
p2512
aS'-568'
p2513
aS'72\r\n'
p2514
aa(lp2515
S'54'
p2516
aS'39'
p2517
aS'-559'
p2518
aS'76\r\n'
p2519
aa(lp2520
S'53'
p2521
aS'30'
p2522
aS'-559'
p2523
aS'76\r\n'
p2524
aa(lp2525
S'53'
p2526
aS'26'
p2527
aS'-563'
p2528
aS'73\r\n'
p2529
aa(lp2530
S'57'
p2531
aS'26'
p2532
aS'-564'
p2533
aS'75\r\n'
p2534
aa(lp2535
S'55'
p2536
aS'28'
p2537
aS'-565'
p2538
aS'71\r\n'
p2539
aa(lp2540
S'46'
p2541
aS'29'
p2542
aS'-574'
p2543
aS'75\r\n'
p2544
aa(lp2545
S'42'
p2546
aS'30'
p2547
aS'-573'
p2548
aS'73\r\n'
p2549
aa(lp2550
S'40'
p2551
aS'29'
p2552
aS'-561'
p2553
aS'76\r\n'
p2554
aa(lp2555
S'40'
p2556
aS'36'
p2557
aS'-566'
p2558
aS'73\r\n'
p2559
aa(lp2560
S'36'
p2561
aS'37'
p2562
aS'-561'
p2563
aS'71\r\n'
p2564
aa(lp2565
S'36'
p2566
aS'45'
p2567
aS'-559'
p2568
aS'74\r\n'
p2569
aa(lp2570
S'38'
p2571
aS'40'
p2572
aS'-560'
p2573
aS'74\r\n'
p2574
aa(lp2575
S'39'
p2576
aS'33'
p2577
aS'-560'
p2578
aS'71\r\n'
p2579
aa(lp2580
S'45'
p2581
aS'31'
p2582
aS'-568'
p2583
aS'72\r\n'
p2584
aa(lp2585
S'42'
p2586
aS'28'
p2587
aS'-569'
p2588
aS'72\r\n'
p2589
aa(lp2590
S'39'
p2591
aS'23'
p2592
aS'-570'
p2593
aS'71\r\n'
p2594
aa(lp2595
S'38'
p2596
aS'20'
p2597
aS'-566'
p2598
aS'76\r\n'
p2599
aa(lp2600
S'40'
p2601
aS'19'
p2602
aS'-563'
p2603
aS'72\r\n'
p2604
aa(lp2605
S'43'
p2606
aS'21'
p2607
aS'-566'
p2608
aS'73\r\n'
p2609
aa(lp2610
S'45'
p2611
aS'24'
p2612
aS'-571'
p2613
aS'71\r\n'
p2614
aa(lp2615
S'40'
p2616
aS'31'
p2617
aS'-570'
p2618
aS'75\r\n'
p2619
aa(lp2620
S'33'
p2621
aS'45'
p2622
aS'-570'
p2623
aS'74\r\n'
p2624
aa(lp2625
S'31'
p2626
aS'46'
p2627
aS'-563'
p2628
aS'72\r\n'
p2629
aa(lp2630
S'34'
p2631
aS'37'
p2632
aS'-558'
p2633
aS'73\r\n'
p2634
aa(lp2635
S'38'
p2636
aS'35'
p2637
aS'-562'
p2638
aS'74\r\n'
p2639
aa(lp2640
S'38'
p2641
aS'32'
p2642
aS'-561'
p2643
aS'76\r\n'
p2644
aa(lp2645
S'40'
p2646
aS'21'
p2647
aS'-567'
p2648
aS'71\r\n'
p2649
aa(lp2650
S'42'
p2651
aS'16'
p2652
aS'-564'
p2653
aS'71\r\n'
p2654
aa(lp2655
S'40'
p2656
ag128
aS'-567'
p2657
aS'73\r\n'
p2658
aa(lp2659
S'47'
p2660
ag20
aS'-563'
p2661
aS'76\r\n'
p2662
aa(lp2663
S'44'
p2664
ag69
aS'-570'
p2665
aS'76\r\n'
p2666
aa(lp2667
S'35'
p2668
aS'10'
p2669
aS'-569'
p2670
aS'73\r\n'
p2671
aa(lp2672
S'30'
p2673
aS'25'
p2674
aS'-563'
p2675
aS'72\r\n'
p2676
aa(lp2677
S'22'
p2678
aS'42'
p2679
aS'-564'
p2680
aS'73\r\n'
p2681
aa(lp2682
S'26'
p2683
aS'54'
p2684
aS'-565'
p2685
aS'76\r\n'
p2686
aa(lp2687
S'21'
p2688
aS'52'
p2689
aS'-569'
p2690
aS'72\r\n'
p2691
aa(lp2692
S'23'
p2693
aS'41'
p2694
aS'-566'
p2695
aS'71\r\n'
p2696
aa(lp2697
S'22'
p2698
aS'34'
p2699
aS'-568'
p2700
aS'76\r\n'
p2701
aa(lp2702
S'33'
p2703
aS'25'
p2704
aS'-565'
p2705
aS'73\r\n'
p2706
aa(lp2707
S'39'
p2708
ag15
aS'-561'
p2709
aS'72\r\n'
p2710
aa(lp2711
S'42'
p2712
aS'-6'
p2713
aS'-559'
p2714
aS'75\r\n'
p2715
aa(lp2716
S'50'
p2717
aS'-12'
p2718
aS'-555'
p2719
aS'76\r\n'
p2720
aa(lp2721
S'54'
p2722
aS'-10'
p2723
aS'-550'
p2724
aS'76\r\n'
p2725
aa(lp2726
S'51'
p2727
aS'-5'
p2728
aS'-555'
p2729
aS'76\r\n'
p2730
aa(lp2731
S'38'
p2732
aS'15'
p2733
aS'-557'
p2734
aS'75\r\n'
p2735
aa(lp2736
S'21'
p2737
aS'34'
p2738
aS'-564'
p2739
aS'73\r\n'
p2740
aa(lp2741
g277
aS'55'
p2742
aS'-571'
p2743
aS'75\r\n'
p2744
aa(lp2745
g586
aS'61'
p2746
aS'-559'
p2747
aS'75\r\n'
p2748
aa(lp2749
S'11'
p2750
aS'56'
p2751
aS'-564'
p2752
aS'71\r\n'
p2753
aa(lp2754
S'17'
p2755
aS'35'
p2756
aS'-566'
p2757
aS'73\r\n'
p2758
aa(lp2759
S'26'
p2760
aS'18'
p2761
aS'-563'
p2762
aS'76\r\n'
p2763
aa(lp2764
S'37'
p2765
ag74
aS'-560'
p2766
aS'76\r\n'
p2767
aa(lp2768
S'46'
p2769
aS'-11'
p2770
aS'-563'
p2771
aS'74\r\n'
p2772
aa(lp2773
S'41'
p2774
aS'-13'
p2775
aS'-563'
p2776
aS'71\r\n'
p2777
aa(lp2778
S'38'
p2779
aS'-7'
p2780
aS'-570'
p2781
aS'76\r\n'
p2782
aa(lp2783
S'37'
p2784
ag10
aS'-574'
p2785
aS'72\r\n'
p2786
aa(lp2787
S'29'
p2788
aS'24'
p2789
aS'-568'
p2790
aS'75\r\n'
p2791
aa(lp2792
S'23'
p2793
aS'37'
p2794
aS'-556'
p2795
aS'74\r\n'
p2796
aa(lp2797
S'19'
p2798
aS'45'
p2799
aS'-559'
p2800
aS'73\r\n'
p2801
aa(lp2802
S'17'
p2803
aS'47'
p2804
aS'-553'
p2805
aS'75\r\n'
p2806
aa(lp2807
S'20'
p2808
aS'38'
p2809
aS'-555'
p2810
aS'76\r\n'
p2811
aa(lp2812
S'23'
p2813
aS'31'
p2814
aS'-558'
p2815
aS'71\r\n'
p2816
aa(lp2817
S'28'
p2818
aS'17'
p2819
aS'-564'
p2820
aS'71\r\n'
p2821
aa(lp2822
S'32'
p2823
ag128
aS'-555'
p2824
aS'72\r\n'
p2825
aa(lp2826
S'36'
p2827
aS'-2'
p2828
aS'-553'
p2829
aS'74\r\n'
p2830
aa(lp2831
S'29'
p2832
aS'-7'
p2833
aS'-558'
p2834
aS'75\r\n'
p2835
aa(lp2836
S'28'
p2837
aS'-5'
p2838
aS'-560'
p2839
aS'72\r\n'
p2840
aa(lp2841
S'24'
p2842
ag20
aS'-562'
p2843
aS'71\r\n'
p2844
aa(lp2845
S'26'
p2846
aS'12'
p2847
aS'-566'
p2848
aS'76\r\n'
p2849
aa(lp2850
S'26'
p2851
aS'23'
p2852
aS'-570'
p2853
aS'71\r\n'
p2854
aa(lp2855
S'19'
p2856
aS'31'
p2857
aS'-564'
p2858
aS'73\r\n'
p2859
aa(lp2860
S'15'
p2861
aS'35'
p2862
aS'-560'
p2863
aS'71\r\n'
p2864
aa(lp2865
S'13'
p2866
aS'38'
p2867
aS'-558'
p2868
aS'76\r\n'
p2869
aa(lp2870
S'15'
p2871
aS'33'
p2872
aS'-558'
p2873
aS'73\r\n'
p2874
aa(lp2875
S'16'
p2876
aS'24'
p2877
aS'-561'
p2878
aS'71\r\n'
p2879
aa(lp2880
S'19'
p2881
aS'13'
p2882
aS'-564'
p2883
aS'76\r\n'
p2884
aa(lp2885
S'18'
p2886
ag15
aS'-571'
p2887
aS'72\r\n'
p2888
aa(lp2889
S'20'
p2890
aS'-1'
p2891
aS'-567'
p2892
aS'74\r\n'
p2893
aa(lp2894
S'18'
p2895
ag74
aS'-570'
p2896
aS'71\r\n'
p2897
aa(lp2898
S'18'
p2899
ag586
aS'-571'
p2900
aS'72\r\n'
p2901
aa(lp2902
S'21'
p2903
aS'17'
p2904
aS'-563'
p2905
aS'71\r\n'
p2906
aa(lp2907
S'20'
p2908
aS'24'
p2909
aS'-560'
p2910
aS'72\r\n'
p2911
aa(lp2912
S'15'
p2913
aS'30'
p2914
aS'-556'
p2915
aS'75\r\n'
p2916
aa(lp2917
S'13'
p2918
aS'33'
p2919
aS'-556'
p2920
aS'74\r\n'
p2921
aa(lp2922
S'13'
p2923
aS'31'
p2924
aS'-561'
p2925
aS'72\r\n'
p2926
aa(lp2927
S'17'
p2928
aS'29'
p2929
aS'-568'
p2930
aS'72\r\n'
p2931
aa(lp2932
S'20'
p2933
aS'15'
p2934
aS'-567'
p2935
aS'73\r\n'
p2936
aa(lp2937
S'20'
p2938
ag10
aS'-572'
p2939
aS'73\r\n'
p2940
aa(lp2941
S'24'
p2942
ag69
aS'-570'
p2943
aS'76\r\n'
p2944
aa(lp2945
S'22'
p2946
ag5
aS'-571'
p2947
aS'74\r\n'
p2948
aa(lp2949
S'24'
p2950
ag128
aS'-571'
p2951
aS'75\r\n'
p2952
aa(lp2953
S'21'
p2954
aS'13'
p2955
aS'-569'
p2956
aS'71\r\n'
p2957
aa(lp2958
S'22'
p2959
aS'21'
p2960
aS'-567'
p2961
aS'72\r\n'
p2962
aa(lp2963
S'18'
p2964
aS'27'
p2965
aS'-568'
p2966
aS'75\r\n'
p2967
aa(lp2968
S'17'
p2969
aS'25'
p2970
aS'-571'
p2971
aS'71\r\n'
p2972
aa(lp2973
S'14'
p2974
aS'27'
p2975
aS'-566'
p2976
aS'74\r\n'
p2977
aa(lp2978
S'18'
p2979
aS'20'
p2980
aS'-562'
p2981
aS'75\r\n'
p2982
aa(lp2983
S'19'
p2984
aS'11'
p2985
aS'-559'
p2986
aS'73\r\n'
p2987
aa(lp2988
S'18'
p2989
ag5
aS'-558'
p2990
aS'75\r\n'
p2991
aa(lp2992
S'18'
p2993
ag10
aS'-565'
p2994
aS'73\r\n'
p2995
aa(lp2996
S'13'
p2997
ag20
aS'-565'
p2998
aS'75\r\n'
p2999
aa(lp3000
S'10'
p3001
ag74
aS'-555'
p3002
aS'71\r\n'
p3003
aa(lp3004
g128
ag10
aS'-555'
p3005
aS'74\r\n'
p3006
aa(lp3007
g586
aS'10'
p3008
aS'-560'
p3009
aS'72\r\n'
p3010
aa(lp3011
g586
aS'17'
p3012
aS'-554'
p3013
aS'71\r\n'
p3014
aa(lp3015
g69
aS'21'
p3016
aS'-556'
p3017
aS'74\r\n'
p3018
aa(lp3019
g20
aS'18'
p3020
aS'-558'
p3021
aS'72\r\n'
p3022
aa(lp3023
g64
aS'18'
p3024
aS'-555'
p3025
aS'72\r\n'
p3026
aa(lp3027
g15
aS'13'
p3028
aS'-555'
p3029
aS'71\r\n'
p3030
aa(lp3031
S'12'
p3032
ag10
aS'-555'
p3033
aS'75\r\n'
p3034
aa(lp3035
S'15'
p3036
aS'-2'
p3037
aS'-557'
p3038
aS'72\r\n'
p3039
aa(lp3040
S'18'
p3041
aS'-8'
p3042
aS'-559'
p3043
aS'71\r\n'
p3044
aa(lp3045
S'22'
p3046
aS'-7'
p3047
aS'-564'
p3048
aS'75\r\n'
p3049
aa(lp3050
S'15'
p3051
ag20
aS'-564'
p3052
aS'72\r\n'
p3053
aa(lp3054
S'14'
p3055
ag69
aS'-560'
p3056
aS'71\r\n'
p3057
aa(lp3058
S'13'
p3059
aS'11'
p3060
aS'-562'
p3061
aS'72\r\n'
p3062
aa(lp3063
S'17'
p3064
aS'17'
p3065
aS'-559'
p3066
aS'74\r\n'
p3067
aa(lp3068
S'22'
p3069
aS'15'
p3070
aS'-560'
p3071
aS'75\r\n'
p3072
aa(lp3073
S'15'
p3074
aS'12'
p3075
aS'-562'
p3076
aS'74\r\n'
p3077
aa(lp3078
S'15'
p3079
aS'14'
p3080
aS'-565'
p3081
aS'74\r\n'
p3082
aa(lp3083
S'15'
p3084
ag277
aS'-562'
p3085
aS'73\r\n'
p3086
aa(lp3087
g277
ag10
aS'-564'
p3088
aS'73\r\n'
p3089
aa(lp3090
S'13'
p3091
ag69
aS'-560'
p3092
aS'73\r\n'
p3093
aa(lp3094
S'14'
p3095
ag5
aS'-561'
p3096
aS'76\r\n'
p3097
aa(lp3098
g277
aS'-2'
p3099
aS'-566'
p3100
aS'72\r\n'
p3101
aa(lp3102
S'12'
p3103
aS'-1'
p3104
aS'-567'
p3105
aS'75\r\n'
p3106
aa(lp3107
S'11'
p3108
ag15
aS'-561'
p3109
aS'71\r\n'
p3110
aa(lp3111
g277
ag586
aS'-567'
p3112
aS'75\r\n'
p3113
aa(lp3114
g15
ag277
aS'-565'
p3115
aS'72\r\n'
p3116
aa(lp3117
g74
aS'11'
p3118
aS'-562'
p3119
aS'76\r\n'
p3120
aa(lp3121
g128
aS'12'
p3122
aS'-557'
p3123
aS'71\r\n'
p3124
aa(lp3125
g128
aS'13'
p3126
aS'-559'
p3127
aS'75\r\n'
p3128
aa(lp3129
g69
aS'18'
p3130
aS'-564'
p3131
aS'72\r\n'
p3132
aa(lp3133
g74
aS'14'
p3134
aS'-566'
p3135
aS'75\r\n'
p3136
aa(lp3137
g128
aS'10'
p3138
aS'-570'
p3139
aS'73\r\n'
p3140
aa(lp3141
g5
ag128
aS'-561'
p3142
aS'76\r\n'
p3143
aa(lp3144
g128
ag10
aS'-566'
p3145
aS'75\r\n'
p3146
aa(lp3147
g15
ag69
aS'-566'
p3148
aS'72\r\n'
p3149
aa(lp3150
g69
ag10
aS'-572'
p3151
aS'73\r\n'
p3152
aa(lp3153
g69
ag10
aS'-574'
p3154
aS'76\r\n'
p3155
aa(lp3156
g20
ag15
aS'-576'
p3157
aS'73\r\n'
p3158
aa(lp3159
g64
ag5
aS'-565'
p3160
aS'71\r\n'
p3161
aa(lp3162
g64
ag128
aS'-564'
p3163
aS'76\r\n'
p3164
aa(lp3165
g64
ag277
aS'-555'
p3166
aS'76\r\n'
p3167
aa(lp3168
g586
aS'12'
p3169
aS'-560'
p3170
aS'73\r\n'
p3171
aa(lp3172
g586
ag277
aS'-565'
p3173
aS'71\r\n'
p3174
aa(lp3175
g277
ag10
aS'-564'
p3176
aS'74\r\n'
p3177
aa(lp3178
g277
ag20
aS'-569'
p3179
aS'71\r\n'
p3180
aa(lp3181
S'10'
p3182
ag128
aS'-568'
p3183
aS'73\r\n'
p3184
aa(lp3185
S'11'
p3186
ag128
aS'-566'
p3187
aS'73\r\n'
p3188
aa(lp3189
S'10'
p3190
ag5
aS'-564'
p3191
aS'71\r\n'
p3192
aa(lp3193
S'14'
p3194
ag5
aS'-559'
p3195
aS'71\r\n'
p3196
aa(lp3197
S'15'
p3198
ag5
aS'-554'
p3199
aS'75\r\n'
p3200
aa(lp3201
S'10'
p3202
ag128
aS'-558'
p3203
aS'75\r\n'
p3204
aa(lp3205
g586
ag5
aS'-565'
p3206
aS'72\r\n'
p3207
aa(lp3208
g586
ag74
aS'-563'
p3209
aS'76\r\n'
p3210
aa(lp3211
g586
ag74
aS'-553'
p3212
aS'76\r\n'
p3213
aa(lp3214
g586
ag5
aS'-554'
p3215
aS'72\r\n'
p3216
aa(lp3217
g128
ag69
aS'-552'
p3218
aS'74\r\n'
p3219
aa(lp3220
g5
ag20
aS'-562'
p3221
aS'73\r\n'
p3222
aa(lp3223
S'-1'
p3224
aS'-1'
p3225
aS'-568'
p3226
aS'71\r\n'
p3227
aa(lp3228
g20
ag69
aS'-567'
p3229
aS'75\r\n'
p3230
aa(lp3231
g20
ag15
aS'-564'
p3232
aS'72\r\n'
p3233
aa(lp3234
g10
ag586
aS'-566'
p3235
aS'72\r\n'
p3236
aa(lp3237
g10
ag128
aS'-565'
p3238
aS'72\r\n'
p3239
aa(lp3240
g10
ag69
aS'-563'
p3241
aS'76\r\n'
p3242
aa(lp3243
g74
ag69
aS'-562'
p3244
aS'71\r\n'
p3245
aa(lp3246
g15
ag5
aS'-562'
p3247
aS'73\r\n'
p3248
aa(lp3249
g64
ag128
aS'-567'
p3250
aS'72\r\n'
p3251
aa(lp3252
g128
ag64
aS'-571'
p3253
aS'74\r\n'
p3254
aa(lp3255
g69
ag64
aS'-571'
p3256
aS'71\r\n'
p3257
aa(lp3258
g10
ag64
aS'-570'
p3259
aS'76\r\n'
p3260
aa(lp3261
g64
ag586
aS'-559'
p3262
aS'76\r\n'
p3263
aa(lp3264
g5
ag15
aS'-571'
p3265
aS'73\r\n'
p3266
aa(lp3267
g128
aS'12'
p3268
aS'-568'
p3269
aS'72\r\n'
p3270
aa(lp3271
g64
ag586
aS'-564'
p3272
aS'74\r\n'
p3273
aa(lp3274
S'-4'
p3275
aS'12'
p3276
aS'-565'
p3277
aS'72\r\n'
p3278
aa(lp3279
g69
aS'11'
p3280
aS'-567'
p3281
aS'76\r\n'
p3282
aa(lp3283
g74
ag5
aS'-575'
p3284
aS'76\r\n'
p3285
aa(lp3286
S'11'
p3287
ag5
aS'-577'
p3288
aS'76\r\n'
p3289
aa(lp3290
g10
ag128
aS'-577'
p3291
aS'73\r\n'
p3292
aa(lp3293
g20
ag10
aS'-570'
p3294
aS'71\r\n'
p3295
aa(lp3296
g69
ag64
aS'-571'
p3297
aS'73\r\n'
p3298
aa(lp3299
g20
ag5
aS'-565'
p3300
aS'71\r\n'
p3301
aa(lp3302
g69
ag15
aS'-570'
p3303
aS'72\r\n'
p3304
aa(lp3305
g74
ag586
aS'-558'
p3306
aS'75\r\n'
p3307
aa(lp3308
g128
aS'10'
p3309
aS'-558'
p3310
aS'72\r\n'
p3311
aa(lp3312
g5
ag69
aS'-555'
p3313
aS'73\r\n'
p3314
aa(lp3315
S'11'
p3316
ag20
aS'-575'
p3317
aS'72\r\n'
p3318
aa(lp3319
g128
ag10
aS'-573'
p3320
aS'72\r\n'
p3321
aa(lp3322
g20
ag20
aS'-576'
p3323
aS'72\r\n'
p3324
aa(lp3325
g74
aS'-6'
p3326
aS'-577'
p3327
aS'76\r\n'
p3328
aa(lp3329
g74
ag20
aS'-574'
p3330
aS'72\r\n'
p3331
aa(lp3332
g128
ag64
aS'-570'
p3333
aS'73\r\n'
p3334
aa(lp3335
g5
ag20
aS'-566'
p3336
aS'71\r\n'
p3337
aa(lp3338
g277
ag10
aS'-565'
p3339
aS'74\r\n'
p3340
aa(lp3341
g586
aS'13'
p3342
aS'-564'
p3343
aS'71\r\n'
p3344
aa(lp3345
g64
aS'11'
p3346
aS'-567'
p3347
aS'75\r\n'
p3348
aa(lp3349
g5
ag5
aS'-563'
p3350
aS'76\r\n'
p3351
aa(lp3352
g10
ag64
aS'-566'
p3353
aS'75\r\n'
p3354
aa(lp3355
g5
ag5
aS'-560'
p3356
aS'73\r\n'
p3357
aa(lp3358
g74
ag10
aS'-567'
p3359
aS'76\r\n'
p3360
aa(lp3361
g128
ag10
aS'-565'
p3362
aS'74\r\n'
p3363
aa(lp3364
g15
ag74
aS'-561'
p3365
aS'76\r\n'
p3366
aa(lp3367
g586
aS'-3'
p3368
aS'-563'
p3369
aS'74\r\n'
p3370
aa(lp3371
g277
aS'-2'
p3372
aS'-555'
p3373
aS'76\r\n'
p3374
aa(lp3375
g277
aS'-2'
p3376
aS'-558'
p3377
aS'72\r\n'
p3378
aa(lp3379
g15
aS'-1'
p3380
aS'-556'
p3381
aS'74\r\n'
p3382
aa(lp3383
g586
ag20
aS'-557'
p3384
aS'73\r\n'
p3385
aa(lp3386
g69
ag74
aS'-554'
p3387
aS'73\r\n'
p3388
aa(lp3389
g20
ag69
aS'-566'
p3390
aS'75\r\n'
p3391
aa(lp3392
g64
aS'-3'
p3393
aS'-560'
p3394
aS'71\r\n'
p3395
aa(lp3396
g5
aS'-9'
p3397
aS'-567'
p3398
aS'71\r\n'
p3399
aa(lp3400
g64
aS'-2'
p3401
aS'-564'
p3402
aS'75\r\n'
p3403
aa(lp3404
g5
ag20
aS'-566'
p3405
aS'72\r\n'
p3406
aa(lp3407
g20
ag64
aS'-561'
p3408
aS'73\r\n'
p3409
aa(lp3410
g20
ag10
aS'-571'
p3411
aS'72\r\n'
p3412
aa(lp3413
S'-1'
p3414
ag69
aS'-571'
p3415
aS'72\r\n'
p3416
aa(lp3417
g74
ag20
aS'-568'
p3418
aS'76\r\n'
p3419
aa(lp3420
g64
ag20
aS'-556'
p3421
aS'74\r\n'
p3422
aa(lp3423
S'-3'
p3424
ag20
aS'-551'
p3425
aS'71\r\n'
p3426
aa(lp3427
S'-2'
p3428
ag20
aS'-553'
p3429
aS'72\r\n'
p3430
aa(lp3431
g20
aS'-4'
p3432
aS'-558'
p3433
aS'73\r\n'
p3434
aa(lp3435
g74
aS'-1'
p3436
aS'-564'
p3437
aS'73\r\n'
p3438
aa(lp3439
S'-1'
p3440
ag15
aS'-567'
p3441
aS'73\r\n'
p3442
aa(lp3443
g20
ag5
aS'-562'
p3444
aS'75\r\n'
p3445
aa(lp3446
S'-1'
p3447
ag128
aS'-561'
p3448
aS'73\r\n'
p3449
aa(lp3450
g74
ag128
aS'-563'
p3451
aS'74\r\n'
p3452
aa(lp3453
g74
ag277
aS'-566'
p3454
aS'73\r\n'
p3455
aa(lp3456
g10
aS'10'
p3457
aS'-570'
p3458
aS'76\r\n'
p3459
aa(lp3460
g69
ag15
aS'-566'
p3461
aS'72\r\n'
p3462
aa(lp3463
g10
ag10
aS'-567'
p3464
aS'71\r\n'
p3465
aa(lp3466
g20
ag64
aS'-570'
p3467
aS'72\r\n'
p3468
aa(lp3469
g69
ag5
aS'-569'
p3470
aS'74\r\n'
p3471
aa(lp3472
g20
ag5
aS'-565'
p3473
aS'73\r\n'
p3474
aa(lp3475
g20
ag20
aS'-566'
p3476
aS'73\r\n'
p3477
aa(lp3478
S'-3'
p3479
aS'-4'
p3480
aS'-557'
p3481
aS'73\r\n'
p3482
aa(lp3483
g74
aS'-1'
p3484
aS'-561'
p3485
aS'76\r\n'
p3486
aa(lp3487
g586
ag20
aS'-559'
p3488
aS'75\r\n'
p3489
aa(lp3490
g64
ag20
aS'-560'
p3491
aS'72\r\n'
p3492
aa(lp3493
g20
ag69
aS'-561'
p3494
aS'75\r\n'
p3495
aa(lp3496
g20
aS'-1'
p3497
aS'-562'
p3498
aS'76\r\n'
p3499
aa(lp3500
g128
ag20
aS'-560'
p3501
aS'74\r\n'
p3502
aa(lp3503
g15
ag74
aS'-562'
p3504
aS'71\r\n'
p3505
aa(lp3506
g64
aS'-2'
p3507
aS'-572'
p3508
aS'72\r\n'
p3509
aa(lp3510
g15
aS'-2'
p3511
aS'-577'
p3512
aS'74\r\n'
p3513
aa(lp3514
g15
aS'-6'
p3515
aS'-579'
p3516
aS'71\r\n'
p3517
aa(lp3518
g20
aS'-7'
p3519
aS'-573'
p3520
aS'72\r\n'
p3521
aa(lp3522
S'-4'
p3523
ag20
aS'-571'
p3524
aS'74\r\n'
p3525
aa(lp3526
g20
ag10
aS'-571'
p3527
aS'71\r\n'
p3528
aa(lp3529
S'-1'
p3530
ag5
aS'-568'
p3531
aS'72\r\n'
p3532
aa(lp3533
g74
ag64
aS'-566'
p3534
aS'76\r\n'
p3535
aa(lp3536
g74
ag64
aS'-568'
p3537
aS'72\r\n'
p3538
aa(lp3539
g64
aS'-2'
p3540
aS'-573'
p3541
aS'75\r\n'
p3542
aa(lp3543
g128
aS'-4'
p3544
aS'-571'
p3545
aS'75\r\n'
p3546
aa(lp3547
g69
aS'-5'
p3548
aS'-572'
p3549
aS'71\r\n'
p3550
aa(lp3551
g20
aS'-10'
p3552
aS'-575'
p3553
aS'75\r\n'
p3554
aa(lp3555
g10
aS'-8'
p3556
aS'-574'
p3557
aS'75\r\n'
p3558
aa(lp3559
g5
aS'-1'
p3560
aS'-573'
p3561
aS'72\r\n'
p3562
aa(lp3563
g69
ag20
aS'-570'
p3564
aS'72\r\n'
p3565
aa(lp3566
g20
aS'-2'
p3567
aS'-568'
p3568
aS'76\r\n'
p3569
aa(lp3570
S'-4'
p3571
ag69
aS'-573'
p3572
aS'74\r\n'
p3573
aa(lp3574
S'-4'
p3575
ag10
aS'-560'
p3576
aS'74\r\n'
p3577
aa(lp3578
S'-3'
p3579
ag20
aS'-555'
p3580
aS'74\r\n'
p3581
aa(lp3582
g20
ag20
aS'-564'
p3583
aS'76\r\n'
p3584
aa(lp3585
g20
ag20
aS'-561'
p3586
aS'76\r\n'
p3587
aa(lp3588
g69
ag20
aS'-562'
p3589
aS'76\r\n'
p3590
aa(lp3591
S'-3'
p3592
aS'-3'
p3593
aS'-566'
p3594
aS'74\r\n'
p3595
aa(lp3596
g74
ag20
aS'-568'
p3597
aS'75\r\n'
p3598
aa(lp3599
g5
aS'-1'
p3600
aS'-564'
p3601
aS'76\r\n'
p3602
aa(lp3603
g15
ag10
aS'-557'
p3604
aS'73\r\n'
p3605
aa(lp3606
g69
ag5
aS'-552'
p3607
aS'71\r\n'
p3608
aa(lp3609
g74
ag277
aS'-548'
p3610
aS'75\r\n'
p3611
aa(lp3612
S'-1'
p3613
ag277
aS'-546'
p3614
aS'75\r\n'
p3615
aa(lp3616
g128
ag5
aS'-555'
p3617
aS'72\r\n'
p3618
aa(lp3619
g69
ag15
aS'-558'
p3620
aS'75\r\n'
p3621
aa(lp3622
g20
ag20
aS'-560'
p3623
aS'71\r\n'
p3624
aa(lp3625
S'-1'
p3626
aS'-6'
p3627
aS'-566'
p3628
aS'76\r\n'
p3629
aa(lp3630
S'-1'
p3631
aS'-11'
p3632
aS'-565'
p3633
aS'76\r\n'
p3634
aa(lp3635
S'-2'
p3636
aS'-4'
p3637
aS'-564'
p3638
aS'71\r\n'
p3639
aa(lp3640
S'-2'
p3641
aS'-3'
p3642
aS'-566'
p3643
aS'75\r\n'
p3644
aa(lp3645
g20
ag20
aS'-567'
p3646
aS'75\r\n'
p3647
aa(lp3648
g69
ag10
aS'-561'
p3649
aS'72\r\n'
p3650
aa(lp3651
g20
ag5
aS'-565'
p3652
aS'75\r\n'
p3653
aa(lp3654
S'-4'
p3655
ag277
aS'-565'
p3656
aS'76\r\n'
p3657
aa(lp3658
g20
ag128
aS'-567'
p3659
aS'72\r\n'
p3660
aa(lp3661
g128
ag64
aS'-558'
p3662
aS'71\r\n'
p3663
aa(lp3664
g64
ag74
aS'-565'
p3665
aS'72\r\n'
p3666
aa(lp3667
g277
ag20
aS'-565'
p3668
aS'72\r\n'
p3669
aa(lp3670
g277
ag69
aS'-568'
p3671
aS'75\r\n'
p3672
aa(lp3673
S'10'
p3674
ag20
aS'-574'
p3675
aS'76\r\n'
p3676
aa(lp3677
g15
ag586
aS'-573'
p3678
aS'74\r\n'
p3679
aa(lp3680
g128
ag10
aS'-568'
p3681
aS'73\r\n'
p3682
aa(lp3683
g64
ag69
aS'-570'
p3684
aS'71\r\n'
p3685
aa(lp3686
g74
ag20
aS'-561'
p3687
aS'76\r\n'
p3688
aa(lp3689
g128
ag69
aS'-562'
p3690
aS'71\r\n'
p3691
aa(lp3692
g64
ag20
aS'-566'
p3693
aS'74\r\n'
p3694
aa(lp3695
g20
ag20
aS'-562'
p3696
aS'75\r\n'
p3697
aa(lp3698
g74
ag74
aS'-562'
p3699
aS'73\r\n'
p3700
aa(lp3701
g74
aS'-3'
p3702
aS'-559'
p3703
aS'75\r\n'
p3704
aa(lp3705
g74
aS'-5'
p3706
aS'-568'
p3707
aS'76\r\n'
p3708
aa(lp3709
g20
aS'-6'
p3710
aS'-574'
p3711
aS'72\r\n'
p3712
aa(lp3713
S'-3'
p3714
aS'-1'
p3715
aS'-577'
p3716
aS'73\r\n'
p3717
aa(lp3718
g20
aS'-3'
p3719
aS'-581'
p3720
aS'75\r\n'
p3721
aa(lp3722
g10
aS'-4'
p3723
aS'-574'
p3724
aS'74\r\n'
p3725
aa(lp3726
g69
ag20
aS'-570'
p3727
aS'71\r\n'
p3728
aa(lp3729
g74
ag74
aS'-569'
p3730
aS'76\r\n'
p3731
aa(lp3732
g20
ag20
aS'-572'
p3733
aS'71\r\n'
p3734
aa(lp3735
g5
aS'-1'
p3736
aS'-574'
p3737
aS'74\r\n'
p3738
aa(lp3739
S'-2'
p3740
ag64
aS'-578'
p3741
aS'74\r\n'
p3742
aa(lp3743
S'-3'
p3744
ag128
aS'-571'
p3745
aS'75\r\n'
p3746
aa(lp3747
S'-3'
p3748
ag64
aS'-576'
p3749
aS'71\r\n'
p3750
aa(lp3751
g69
ag74
aS'-580'
p3752
aS'72\r\n'
p3753
aa(lp3754
S'76\r\n'
p3755
aa(lp3756
g20
ag74
aS'-557'
p3757
aS'76\r\n'
p3758
aa(lp3759
S'-3'
p3760
ag10
aS'-556'
p3761
aS'76\r\n'
p3762
aa(lp3763
S'-5'
p3764
ag5
aS'-548'
p3765
aS'72\r\n'
p3766
aa(lp3767
S'-7'
p3768
ag5
aS'-542'
p3769
aS'71\r\n'
p3770
aa(lp3771
S'-5'
p3772
ag74
aS'-542'
p3773
aS'74\r\n'
p3774
aa(lp3775
S'-3'
p3776
ag20
aS'-544'
p3777
aS'76\r\n'
p3778
aa(lp3779
S'-4'
p3780
ag10
aS'-547'
p3781
aS'73\r\n'
p3782
aa(lp3783
S'-4'
p3784
ag69
aS'-551'
p3785
aS'75\r\n'
p3786
aa(lp3787
S'-5'
p3788
ag10
aS'-546'
p3789
aS'74\r\n'
p3790
aa(lp3791
S'6\r\n'
p3792
aa(lp3793
g20
ag74
aS'-557'
p3794
aS'76\r\n'
p3795
aa(lp3796
S'-3'
p3797
ag10
aS'-556'
p3798
aS'76\r\n'
p3799
aa(lp3800
S'-5'
p3801
ag5
aS'-548'
p3802
aS'72\r\n'
p3803
aa(lp3804
S'-7'
p3805
ag5
aS'-542'
p3806
aS'71\r\n'
p3807
aa(lp3808
S'-5'
p3809
ag74
aS'-542'
p3810
aS'74\r\n'
p3811
aa(lp3812
S'-3'
p3813
ag20
aS'-544'
p3814
aS'76\r\n'
p3815
aa(lp3816
S'-4'
p3817
ag10
aS'-547'
p3818
aS'73\r\n'
p3819
aa(lp3820
S'-4'
p3821
ag69
aS'-551'
p3822
aS'75\r\n'
p3823
aa(lp3824
S'-5'
p3825
ag10
aS'-546'
p3826
aS'74\r\n'
p3827
aa(lp3828
S'6\r\n'
p3829
aa(lp3830
g20
ag74
aS'-557'
p3831
aS'76\r\n'
p3832
aa(lp3833
S'-3'
p3834
ag10
aS'-556'
p3835
aS'76\r\n'
p3836
aa(lp3837
S'-5'
p3838
ag5
aS'-548'
p3839
aS'72\r\n'
p3840
aa(lp3841
S'-7'
p3842
ag5
aS'-542'
p3843
aS'71\r\n'
p3844
aa(lp3845
S'-5'
p3846
ag74
aS'-542'
p3847
aS'74\r\n'
p3848
aa(lp3849
S'-3'
p3850
ag20
aS'-544'
p3851
aS'76\r\n'
p3852
aa(lp3853
S'-4'
p3854
ag10
aS'-547'
p3855
aS'73\r\n'
p3856
aa(lp3857
S'-4'
p3858
ag69
aS'-551'
p3859
aS'75\r\n'
p3860
aa(lp3861
S'-5'
p3862
ag10
aS'-546'
p3863
aS'74\r\n'
p3864
aa(lp3865
S'-2'
p3866
ag128
aS'-554'
p3867
aS'75\r\n'
p3868
aa(lp3869
S'-4'
p3870
ag10
aS'-557'
p3871
aS'72\r\n'
p3872
aa(lp3873
S'-3'
p3874
aS'11'
p3875
aS'-558'
p3876
aS'76\r\n'
p3877
aa(lp3878
S'-5'
p3879
ag277
aS'-557'
p3880
aS'76\r\n'
p3881
aa(lp3882
S'-4'
p3883
ag15
aS'-559'
p3884
aS'72\r\n'
p3885
aa(lp3886
S'-6'
p3887
ag15
aS'-552'
p3888
aS'74\r\n'
p3889
aa(lp3890
S'-6'
p3891
ag586
aS'-566'
p3892
aS'76\r\n'
p3893
aa(lp3894
S'-13'
p3895
ag15
aS'-577'
p3896
aS'72\r\n'
p3897
aa(lp3898
S'-6'
p3899
ag64
aS'-573'
p3900
aS'73\r\n'
p3901
aa(lp3902
S'-4'
p3903
ag10
aS'-569'
p3904
aS'75\r\n'
p3905
aa(lp3906
S'-3'
p3907
aS'-1'
p3908
aS'-565'
p3909
aS'72\r\n'
p3910
aa(lp3911
S'-2'
p3912
aS'-1'
p3913
aS'-559'
p3914
aS'74\r\n'
p3915
aa(lp3916
S'-5'
p3917
ag20
aS'-559'
p3918
aS'76\r\n'
p3919
aa(lp3920
S'-4'
p3921
ag20
aS'-557'
p3922
aS'72\r\n'
p3923
aa(lp3924
S'-4'
p3925
ag69
aS'-561'
p3926
aS'71\r\n'
p3927
aa(lp3928
S'-1'
p3929
ag20
aS'-556'
p3930
aS'72\r\n'
p3931
aa(lp3932
S'-3'
p3933
ag69
aS'-553'
p3934
aS'73\r\n'
p3935
aa(lp3936
S'-1'
p3937
ag128
aS'-560'
p3938
aS'75\r\n'
p3939
aa(lp3940
S'-2'
p3941
ag69
aS'-556'
p3942
aS'71\r\n'
p3943
aa(lp3944
g20
ag69
aS'-558'
p3945
aS'76\r\n'
p3946
aa(lp3947
S'-5'
p3948
ag5
aS'-559'
p3949
aS'72\r\n'
p3950
aa(lp3951
S'-2'
p3952
ag10
aS'-560'
p3953
aS'74\r\n'
p3954
aa(lp3955
S'-3'
p3956
ag20
aS'-566'
p3957
aS'74\r\n'
p3958
aa(lp3959
S'-2'
p3960
ag20
aS'-565'
p3961
aS'73\r\n'
p3962
aa(lp3963
S'-1'
p3964
ag20
aS'-565'
p3965
aS'73\r\n'
p3966
aa(lp3967
S'-5'
p3968
ag69
aS'-569'
p3969
aS'74\r\n'
p3970
aa(lp3971
g20
ag74
aS'-571'
p3972
aS'72\r\n'
p3973
aa(lp3974
g20
ag128
aS'-568'
p3975
aS'72\r\n'
p3976
aa(lp3977
S'-8'
p3978
aS'15'
p3979
aS'-564'
p3980
aS'74\r\n'
p3981
aa(lp3982
S'-7'
p3983
aS'11'
p3984
aS'-568'
p3985
aS'75\r\n'
p3986
aa(lp3987
S'-5'
p3988
ag15
aS'-572'
p3989
aS'73\r\n'
p3990
aa(lp3991
S'-1'
p3992
ag128
aS'-570'
p3993
aS'72\r\n'
p3994
aa(lp3995
g74
ag586
aS'-566'
p3996
aS'75\r\n'
p3997
aa(lp3998
S'-1'
p3999
ag10
aS'-573'
p4000
aS'72\r\n'
p4001
aa(lp4002
S'-6'
p4003
ag5
aS'-571'
p4004
aS'74\r\n'
p4005
aa(lp4006
S'-5'
p4007
ag5
aS'-568'
p4008
aS'74\r\n'
p4009
aa(lp4010
S'-4'
p4011
ag69
aS'-564'
p4012
aS'71\r\n'
p4013
aa(lp4014
S'-4'
p4015
ag64
aS'-574'
p4016
aS'71\r\n'
p4017
aa(lp4018
S'-4'
p4019
ag64
aS'-567'
p4020
aS'72\r\n'
p4021
aa(lp4022
S'-4'
p4023
ag128
aS'-568'
p4024
aS'72\r\n'
p4025
aa(lp4026
S'-11'
p4027
aS'10'
p4028
aS'-563'
p4029
aS'73\r\n'
p4030
aa(lp4031
S'-5'
p4032
ag128
aS'-554'
p4033
aS'72\r\n'
p4034
aa(lp4035
S'-7'
p4036
ag10
aS'-555'
p4037
aS'73\r\n'
p4038
aa(lp4039
S'-9'
p4040
ag128
aS'-563'
p4041
aS'75\r\n'
p4042
aa(lp4043
S'-8'
p4044
ag586
aS'-566'
p4045
aS'72\r\n'
p4046
aa(lp4047
S'-7'
p4048
aS'11'
p4049
aS'-568'
p4050
aS'71\r\n'
p4051
aa(lp4052
S'-8'
p4053
ag5
aS'-565'
p4054
aS'74\r\n'
p4055
aa(lp4056
S'-4'
p4057
ag64
aS'-564'
p4058
aS'73\r\n'
p4059
aa(lp4060
S'-3'
p4061
ag74
aS'-562'
p4062
aS'72\r\n'
p4063
aa(lp4064
S'-6'
p4065
ag20
aS'-571'
p4066
aS'72\r\n'
p4067
aa(lp4068
S'-7'
p4069
ag20
aS'-572'
p4070
aS'75\r\n'
p4071
aa(lp4072
S'-8'
p4073
ag20
aS'-566'
p4074
aS'71\r\n'
p4075
aa(lp4076
S'-10'
p4077
aS'-2'
p4078
aS'-564'
p4079
aS'71\r\n'
p4080
aa(lp4081
S'-6'
p4082
ag69
aS'-564'
p4083
aS'71\r\n'
p4084
aa(lp4085
S'-5'
p4086
ag20
aS'-564'
p4087
aS'72\r\n'
p4088
aa(lp4089
g74
aS'-2'
p4090
aS'-561'
p4091
aS'76\r\n'
p4092
aa(lp4093
g64
aS'-2'
p4094
aS'-561'
p4095
aS'71\r\n'
p4096
aa(lp4097
g5
aS'-5'
p4098
aS'-564'
p4099
aS'73\r\n'
p4100
aa(lp4101
g69
aS'-4'
p4102
aS'-564'
p4103
aS'76\r\n'
p4104
aa(lp4105
g74
aS'-1'
p4106
aS'-568'
p4107
aS'72\r\n'
p4108
aa(lp4109
S'-4'
p4110
aS'-2'
p4111
aS'-562'
p4112
aS'72\r\n'
p4113
aa(lp4114
S'-1'
p4115
aS'-2'
p4116
aS'-564'
p4117
aS'73\r\n'
p4118
aa(lp4119
S'-3'
p4120
ag10
aS'-576'
p4121
aS'76\r\n'
p4122
aa(lp4123
g20
ag15
aS'-583'
p4124
aS'72\r\n'
p4125
aa(lp4126
g20
ag69
aS'-575'
p4127
aS'71\r\n'
p4128
aa(lp4129
g74
ag74
aS'-562'
p4130
aS'71\r\n'
p4131
aa(lp4132
g20
aS'-2'
p4133
aS'-565'
p4134
aS'74\r\n'
p4135
aa(lp4136
g10
ag20
aS'-570'
p4137
aS'76\r\n'
p4138
aa(lp4139
g20
ag20
aS'-568'
p4140
aS'75\r\n'
p4141
aa(lp4142
g20
ag64
aS'-564'
p4143
aS'72\r\n'
p4144
aa(lp4145
S'-2'
p4146
ag277
aS'-564'
p4147
aS'71\r\n'
p4148
aa(lp4149
S'-2'
p4150
ag15
aS'-562'
p4151
aS'76\r\n'
p4152
aa(lp4153
S'-6'
p4154
ag277
aS'-558'
p4155
aS'75\r\n'
p4156
aa(lp4157
S'-8'
p4158
ag69
aS'-555'
p4159
aS'73\r\n'
p4160
aa(lp4161
S'-10'
p4162
ag20
aS'-552'
p4163
aS'76\r\n'
p4164
aa(lp4165
S'-12'
p4166
ag74
aS'-557'
p4167
aS'71\r\n'
p4168
aa(lp4169
S'-10'
p4170
aS'-1'
p4171
aS'-566'
p4172
aS'76\r\n'
p4173
aa(lp4174
S'-8'
p4175
ag20
aS'-570'
p4176
aS'76\r\n'
p4177
aa(lp4178
S'-7'
p4179
aS'-4'
p4180
aS'-565'
p4181
aS'75\r\n'
p4182
aa(lp4183
S'-6'
p4184
aS'-5'
p4185
aS'-558'
p4186
aS'76\r\n'
p4187
aa(lp4188
S'-7'
p4189
aS'-2'
p4190
aS'-557'
p4191
aS'74\r\n'
p4192
aa(lp4193
S'-4'
p4194
ag20
aS'-556'
p4195
aS'73\r\n'
p4196
aa(lp4197
g20
aS'-1'
p4198
aS'-557'
p4199
aS'72\r\n'
p4200
aa(lp4201
S'-3'
p4202
ag74
aS'-555'
p4203
aS'74\r\n'
p4204
aa(lp4205
S'-9'
p4206
ag5
aS'-553'
p4207
aS'75\r\n'
p4208
aa(lp4209
S'-8'
p4210
ag20
aS'-556'
p4211
aS'75\r\n'
p4212
aa(lp4213
S'-3'
p4214
ag74
aS'-561'
p4215
aS'76\r\n'
p4216
aa(lp4217
S'-7'
p4218
aS'-2'
p4219
aS'-562'
p4220
aS'74\r\n'
p4221
aa(lp4222
S'-3'
p4223
aS'-5'
p4224
aS'-556'
p4225
aS'75\r\n'
p4226
aa(lp4227
S'-8'
p4228
aS'-6'
p4229
aS'-562'
p4230
aS'71\r\n'
p4231
aa(lp4232
S'-6'
p4233
ag20
aS'-561'
p4234
aS'75\r\n'
p4235
aa(lp4236
S'-4'
p4237
ag64
aS'-563'
p4238
aS'75\r\n'
p4239
aa(lp4240
S'-1'
p4241
ag5
aS'-557'
p4242
aS'76\r\n'
p4243
aa(lp4244
S'-2'
p4245
ag74
aS'-562'
p4246
aS'73\r\n'
p4247
aa(lp4248
g69
ag69
aS'-559'
p4249
aS'72\r\n'
p4250
aa(lp4251
g20
ag128
aS'-559'
p4252
aS'71\r\n'
p4253
aa(lp4254
S'-3'
p4255
ag15
aS'-554'
p4256
aS'74\r\n'
p4257
aa(lp4258
S'-2'
p4259
ag15
aS'-553'
p4260
aS'73\r\n'
p4261
aa(lp4262
g69
ag20
aS'-555'
p4263
aS'72\r\n'
p4264
aa(lp4265
g10
aS'-3'
p4266
aS'-557'
p4267
aS'71\r\n'
p4268
aa(lp4269
g74
aS'-1'
p4270
aS'-559'
p4271
aS'74\r\n'
p4272
aa(lp4273
S'-1'
p4274
ag20
aS'-573'
p4275
aS'74\r\n'
p4276
aa(lp4277
g20
ag74
aS'-575'
p4278
aS'74\r\n'
p4279
aa(lp4280
g74
ag20
aS'-576'
p4281
aS'75\r\n'
p4282
aa(lp4283
g20
aS'-2'
p4284
aS'-574'
p4285
aS'74\r\n'
p4286
aa(lp4287
g74
aS'-4'
p4288
aS'-571'
p4289
aS'74\r\n'
p4290
aa(lp4291
g20
aS'-1'
p4292
aS'-567'
p4293
aS'76\r\n'
p4294
aa(lp4295
g20
aS'-3'
p4296
aS'-570'
p4297
aS'74\r\n'
p4298
aa(lp4299
g20
ag74
aS'-575'
p4300
aS'76\r\n'
p4301
aa(lp4302
S'-1'
p4303
ag586
aS'-572'
p4304
aS'76\r\n'
p4305
aa(lp4306
S'-2'
p4307
ag10
aS'-561'
p4308
aS'75\r\n'
p4309
aa(lp4310
S'-1'
p4311
ag20
aS'-546'
p4312
aS'71\r\n'
p4313
aa(lp4314
S'-1'
p4315
ag20
aS'-545'
p4316
aS'72\r\n'
p4317
aa(lp4318
g20
ag20
aS'-549'
p4319
aS'73\r\n'
p4320
aa(lp4321
S'-4'
p4322
aS'-1'
p4323
aS'-549'
p4324
aS'73\r\n'
p4325
aa(lp4326
S'-2'
p4327
aS'-3'
p4328
aS'-541'
p4329
aS'76\r\n'
p4330
aa(lp4331
S'-7'
p4332
ag20
aS'-552'
p4333
aS'73\r\n'
p4334
aa(lp4335
S'-2'
p4336
ag20
aS'-557'
p4337
aS'73\r\n'
p4338
aa(lp4339
S'-4'
p4340
aS'-1'
p4341
aS'-564'
p4342
aS'76\r\n'
p4343
aa(lp4344
S'-4'
p4345
ag10
aS'-565'
p4346
aS'73\r\n'
p4347
aa(lp4348
S'-9'
p4349
ag586
aS'-562'
p4350
aS'74\r\n'
p4351
aa(lp4352
S'-6'
p4353
ag64
aS'-557'
p4354
aS'71\r\n'
p4355
aa(lp4356
S'-5'
p4357
ag128
aS'-550'
p4358
aS'71\r\n'
p4359
aa(lp4360
S'-4'
p4361
ag20
aS'-559'
p4362
aS'71\r\n'
p4363
aa(lp4364
S'-3'
p4365
ag20
aS'-561'
p4366
aS'71\r\n'
p4367
aa(lp4368
g20
aS'-4'
p4369
aS'-552'
p4370
aS'73\r\n'
p4371
aa(lp4372
S'-2'
p4373
aS'-6'
p4374
aS'-546'
p4375
aS'74\r\n'
p4376
aa(lp4377
g5
aS'-4'
p4378
aS'-558'
p4379
aS'75\r\n'
p4380
aa(lp4381
g5
aS'-3'
p4382
aS'-561'
p4383
aS'71\r\n'
p4384
aa(lp4385
g128
ag74
aS'-554'
p4386
aS'73\r\n'
p4387
aa(lp4388
g10
ag20
aS'-554'
p4389
aS'72\r\n'
p4390
aa(lp4391
g20
ag10
aS'-561'
p4392
aS'75\r\n'
p4393
aa(lp4394
S'-2'
p4395
ag69
aS'-561'
p4396
aS'74\r\n'
p4397
aa(lp4398
g20
ag64
aS'-563'
p4399
aS'71\r\n'
p4400
aa(lp4401
S'-4'
p4402
ag20
aS'-565'
p4403
aS'76\r\n'
p4404
aa(lp4405
S'-2'
p4406
aS'-5'
p4407
aS'-571'
p4408
aS'72\r\n'
p4409
aa(lp4410
S'-2'
p4411
aS'-5'
p4412
aS'-573'
p4413
aS'72\r\n'
p4414
aa(lp4415
g20
aS'-6'
p4416
aS'-571'
p4417
aS'71\r\n'
p4418
aa(lp4419
S'-1'
p4420
aS'-4'
p4421
aS'-569'
p4422
aS'72\r\n'
p4423
aa(lp4424
g69
aS'-7'
p4425
aS'-561'
p4426
aS'72\r\n'
p4427
aa(lp4428
g20
aS'-2'
p4429
aS'-563'
p4430
aS'71\r\n'
p4431
aa(lp4432
S'-1'
p4433
ag20
aS'-560'
p4434
aS'75\r\n'
p4435
aa(lp4436
S'-2'
p4437
aS'-4'
p4438
aS'-559'
p4439
aS'76\r\n'
p4440
aa(lp4441
S'-1'
p4442
ag20
aS'-559'
p4443
aS'76\r\n'
p4444
aa(lp4445
S'-1'
p4446
ag69
aS'-560'
p4447
aS'71\r\n'
p4448
aa(lp4449
S'-1'
p4450
ag74
aS'-561'
p4451
aS'71\r\n'
p4452
aa(lp4453
g20
ag64
aS'-559'
p4454
aS'71\r\n'
p4455
aa(lp4456
g74
ag128
aS'-565'
p4457
aS'72\r\n'
p4458
aa(lp4459
g74
ag15
aS'-564'
p4460
aS'73\r\n'
p4461
aa(lp4462
S'-3'
p4463
ag15
aS'-568'
p4464
aS'76\r\n'
p4465
aa(lp4466
g20
aS'-1'
p4467
aS'-565'
p4468
aS'73\r\n'
p4469
aa(lp4470
S'-2'
p4471
aS'-2'
p4472
aS'-565'
p4473
aS'71\r\n'
p4474
aa(lp4475
g20
aS'-7'
p4476
aS'-570'
p4477
aS'72\r\n'
p4478
aa(lp4479
S'-4'
p4480
aS'-8'
p4481
aS'-574'
p4482
aS'72\r\n'
p4483
aa(lp4484
S'-2'
p4485
aS'-9'
p4486
aS'-569'
p4487
aS'71\r\n'
p4488
aa(lp4489
S'-3'
p4490
aS'-5'
p4491
aS'-568'
p4492
aS'72\r\n'
p4493
aa(lp4494
S'-7'
p4495
aS'-3'
p4496
aS'-568'
p4497
aS'73\r\n'
p4498
aa(lp4499
S'-9'
p4500
aS'-2'
p4501
aS'-568'
p4502
aS'76\r\n'
p4503
aa(lp4504
S'-6'
p4505
ag20
aS'-568'
p4506
aS'72\r\n'
p4507
aa(lp4508
S'-8'
p4509
aS'-2'
p4510
aS'-574'
p4511
aS'76\r\n'
p4512
aa(lp4513
S'-4'
p4514
aS'-2'
p4515
aS'-567'
p4516
aS'74\r\n'
p4517
aa(lp4518
S'-4'
p4519
ag10
aS'-570'
p4520
aS'74\r\n'
p4521
aa(lp4522
S'-3'
p4523
ag20
aS'-559'
p4524
aS'76\r\n'
p4525
aa(lp4526
S'-3'
p4527
ag20
aS'-559'
p4528
aS'76\r\n'
p4529
aa(lp4530
g20
aS'-2'
p4531
aS'-566'
p4532
aS'74\r\n'
p4533
aa(lp4534
S'-1'
p4535
ag20
aS'-564'
p4536
aS'76\r\n'
p4537
aa(lp4538
S'-2'
p4539
ag10
aS'-559'
p4540
aS'75\r\n'
p4541
aa(lp4542
g20
ag69
aS'-550'
p4543
aS'76\r\n'
p4544
aa(lp4545
g74
ag20
aS'-548'
p4546
aS'74\r\n'
p4547
aa(lp4548
g20
ag5
aS'-558'
p4549
aS'75\r\n'
p4550
aa(lp4551
g74
ag74
aS'-564'
p4552
aS'75\r\n'
p4553
aa(lp4554
S'-3'
p4555
ag20
aS'-562'
p4556
aS'75\r\n'
p4557
aa(lp4558
S'-5'
p4559
ag69
aS'-560'
p4560
aS'76\r\n'
p4561
aa(lp4562
S'-3'
p4563
ag20
aS'-555'
p4564
aS'74\r\n'
p4565
aa(lp4566
S'-3'
p4567
ag69
aS'-551'
p4568
aS'75\r\n'
p4569
aa(lp4570
S'-2'
p4571
aS'-1'
p4572
aS'-560'
p4573
aS'72\r\n'
p4574
aa(lp4575
S'-8'
p4576
aS'-7'
p4577
aS'-558'
p4578
aS'75\r\n'
p4579
aa(lp4580
S'-7'
p4581
aS'-9'
p4582
aS'-563'
p4583
aS'72\r\n'
p4584
aa(lp4585
S'-3'
p4586
aS'-7'
p4587
aS'-563'
p4588
aS'71\r\n'
p4589
aa(lp4590
S'-4'
p4591
aS'-5'
p4592
aS'-556'
p4593
aS'73\r\n'
p4594
aa(lp4595
S'-3'
p4596
aS'-1'
p4597
aS'-557'
p4598
aS'76\r\n'
p4599
aa(lp4600
S'-4'
p4601
ag74
aS'-556'
p4602
aS'76\r\n'
p4603
aa(lp4604
S'-4'
p4605
ag20
aS'-561'
p4606
aS'75\r\n'
p4607
aa(lp4608
S'-4'
p4609
aS'-2'
p4610
aS'-556'
p4611
aS'73\r\n'
p4612
aa(lp4613
S'-3'
p4614
ag20
aS'-558'
p4615
aS'74\r\n'
p4616
aa(lp4617
S'-8'
p4618
ag64
aS'-554'
p4619
aS'74\r\n'
p4620
aa(lp4621
S'-7'
p4622
ag74
aS'-552'
p4623
aS'75\r\n'
p4624
aa(lp4625
S'-4'
p4626
ag64
aS'-556'
p4627
aS'73\r\n'
p4628
aa(lp4629
S'-5'
p4630
ag5
aS'-561'
p4631
aS'71\r\n'
p4632
aa(lp4633
S'-1'
p4634
ag69
aS'-565'
p4635
aS'73\r\n'
p4636
aa(lp4637
g74
ag74
aS'-558'
p4638
aS'72\r\n'
p4639
aa(lp4640
S'-3'
p4641
ag20
aS'-553'
p4642
aS'76\r\n'
p4643
aa(lp4644
S'-3'
p4645
aS'-4'
p4646
aS'-555'
p4647
aS'73\r\n'
p4648
aa(lp4649
S'-2'
p4650
aS'-8'
p4651
aS'-551'
p4652
aS'73\r\n'
p4653
aa(lp4654
S'-1'
p4655
aS'-14'
p4656
aS'-551'
p4657
aS'76\r\n'
p4658
aa(lp4659
g20
aS'-8'
p4660
aS'-551'
p4661
aS'75\r\n'
p4662
aa(lp4663
S'-1'
p4664
ag20
aS'-557'
p4665
aS'75\r\n'
p4666
aa(lp4667
S'-3'
p4668
aS'-3'
p4669
aS'-561'
p4670
aS'73\r\n'
p4671
aa(lp4672
S'-8'
p4673
aS'-3'
p4674
aS'-559'
p4675
aS'71\r\n'
p4676
aa(lp4677
S'-7'
p4678
aS'-3'
p4679
aS'-561'
p4680
aS'73\r\n'
p4681
aa(lp4682
S'-7'
p4683
ag20
aS'-567'
p4684
aS'75\r\n'
p4685
aa(lp4686
S'-6'
p4687
ag10
aS'-565'
p4688
aS'71\r\n'
p4689
aa(lp4690
S'-6'
p4691
ag74
aS'-559'
p4692
aS'71\r\n'
p4693
aa(lp4694
S'-8'
p4695
ag20
aS'-561'
p4696
aS'72\r\n'
p4697
aa(lp4698
S'-5'
p4699
ag69
aS'-559'
p4700
aS'71\r\n'
p4701
aa(lp4702
S'-5'
p4703
ag20
aS'-553'
p4704
aS'74\r\n'
p4705
aa(lp4706
S'-6'
p4707
ag20
aS'-556'
p4708
aS'72\r\n'
p4709
aa(lp4710
S'-4'
p4711
ag20
aS'-557'
p4712
aS'71\r\n'
p4713
aa(lp4714
S'-3'
p4715
ag64
aS'-554'
p4716
aS'74\r\n'
p4717
aa(lp4718
g20
ag586
aS'-553'
p4719
aS'71\r\n'
p4720
aa(lp4721
S'-2'
p4722
ag277
aS'-562'
p4723
aS'71\r\n'
p4724
aa(lp4725
S'-4'
p4726
ag5
aS'-561'
p4727
aS'75\r\n'
p4728
aa(lp4729
S'-3'
p4730
ag74
aS'-565'
p4731
aS'75\r\n'
p4732
aa(lp4733
S'-5'
p4734
ag10
aS'-570'
p4735
aS'74\r\n'
p4736
aa(lp4737
S'-2'
p4738
aS'-2'
p4739
aS'-566'
p4740
aS'75\r\n'
p4741
aa(lp4742
S'-5'
p4743
aS'-3'
p4744
aS'-561'
p4745
aS'75\r\n'
p4746
aa(lp4747
S'-6'
p4748
aS'-5'
p4749
aS'-561'
p4750
aS'72\r\n'
p4751
aa(lp4752
S'-5'
p4753
aS'-4'
p4754
aS'-558'
p4755
aS'76\r\n'
p4756
aa(lp4757
S'-7'
p4758
ag20
aS'-557'
p4759
aS'75\r\n'
p4760
aa(lp4761
S'-2'
p4762
ag74
aS'-561'
p4763
aS'72\r\n'
p4764
aa(lp4765
S'-7'
p4766
ag69
aS'-558'
p4767
aS'73\r\n'
p4768
aa(lp4769
S'-6'
p4770
ag10
aS'-557'
p4771
aS'71\r\n'
p4772
aa(lp4773
S'-6'
p4774
ag20
aS'-548'
p4775
aS'72\r\n'
p4776
aa(lp4777
S'-6'
p4778
ag20
aS'-549'
p4779
aS'71\r\n'
p4780
aa(lp4781
S'-2'
p4782
aS'-1'
p4783
aS'-558'
p4784
aS'72\r\n'
p4785
aa(lp4786
S'-3'
p4787
ag20
aS'-569'
p4788
aS'71\r\n'
p4789
aa(lp4790
S'-6'
p4791
ag74
aS'-568'
p4792
aS'76\r\n'
p4793
aa(lp4794
S'-3'
p4795
ag74
aS'-563'
p4796
aS'76\r\n'
p4797
aa(lp4798
S'-2'
p4799
ag10
aS'-569'
p4800
aS'72\r\n'
p4801
aa(lp4802
S'-2'
p4803
ag10
aS'-562'
p4804
aS'73\r\n'
p4805
aa(lp4806
S'-2'
p4807
ag5
aS'-563'
p4808
aS'74\r\n'
p4809
aa(lp4810
S'-2'
p4811
ag10
aS'-564'
p4812
aS'73\r\n'
p4813
aa(lp4814
S'-5'
p4815
aS'-1'
p4816
aS'-564'
p4817
aS'72\r\n'
p4818
aa(lp4819
S'-2'
p4820
ag74
aS'-561'
p4821
aS'75\r\n'
p4822
aa(lp4823
S'-3'
p4824
aS'-2'
p4825
aS'-560'
p4826
aS'75\r\n'
p4827
aa(lp4828
S'-1'
p4829
aS'-4'
p4830
aS'-559'
p4831
aS'71\r\n'
p4832
aa(lp4833
S'-5'
p4834
aS'-1'
p4835
aS'-566'
p4836
aS'73\r\n'
p4837
aa(lp4838
S'-7'
p4839
aS'-4'
p4840
aS'-563'
p4841
aS'72\r\n'
p4842
aa(lp4843
S'-7'
p4844
aS'-3'
p4845
aS'-565'
p4846
aS'73\r\n'
p4847
aa(lp4848
S'-14'
p4849
aS'-2'
p4850
aS'-565'
p4851
aS'73\r\n'
p4852
aa(lp4853
S'-12'
p4854
aS'-9'
p4855
aS'-566'
p4856
aS'75\r\n'
p4857
aa(lp4858
S'-7'
p4859
aS'-9'
p4860
aS'-561'
p4861
aS'76\r\n'
p4862
aa(lp4863
g20
aS'-10'
p4864
aS'-559'
p4865
aS'72\r\n'
p4866
aa(lp4867
S'-2'
p4868
aS'-10'
p4869
aS'-557'
p4870
aS'72\r\n'
p4871
aa(lp4872
S'-2'
p4873
aS'-13'
p4874
aS'-558'
p4875
aS'73\r\n'
p4876
aa(lp4877
g20
aS'-2'
p4878
aS'-560'
p4879
aS'75\r\n'
p4880
aa(lp4881
g20
ag74
aS'-562'
p4882
aS'73\r\n'
p4883
aa(lp4884
S'-1'
p4885
ag74
aS'-563'
p4886
aS'73\r\n'
p4887
aa(lp4888
g74
aS'-1'
p4889
aS'-567'
p4890
aS'71\r\n'
p4891
aa(lp4892
g10
ag20
aS'-560'
p4893
aS'76\r\n'
p4894
aa(lp4895
g20
ag20
aS'-569'
p4896
aS'71\r\n'
p4897
aa(lp4898
S'-1'
p4899
aS'-2'
p4900
aS'-565'
p4901
aS'71\r\n'
p4902
aa(lp4903
S'-2'
p4904
aS'-2'
p4905
aS'-565'
p4906
aS'75\r\n'
p4907
aa(lp4908
S'-1'
p4909
aS'-4'
p4910
aS'-568'
p4911
aS'76\r\n'
p4912
aa(lp4913
g20
aS'-5'
p4914
aS'-571'
p4915
aS'74\r\n'
p4916
aa(lp4917
g74
aS'-5'
p4918
aS'-558'
p4919
aS'72\r\n'
p4920
aa(lp4921
S'-2'
p4922
aS'-5'
p4923
aS'-553'
p4924
aS'72\r\n'
p4925
aa(lp4926
S'-2'
p4927
ag5
aS'-558'
p4928
aS'76\r\n'
p4929
aa(lp4930
S'-2'
p4931
ag10
aS'-555'
p4932
aS'72\r\n'
p4933
aa(lp4934
S'-2'
p4935
ag20
aS'-558'
p4936
aS'72\r\n'
p4937
aa(lp4938
g64
ag69
aS'-563'
p4939
aS'74\r\n'
p4940
aa(lp4941
g128
aS'-2'
p4942
aS'-560'
p4943
aS'71\r\n'
p4944
aa(lp4945
g64
ag69
aS'-561'
p4946
aS'71\r\n'
p4947
aa(lp4948
g5
ag74
aS'-560'
p4949
aS'72\r\n'
p4950
aa(lp4951
g10
aS'-2'
p4952
aS'-556'
p4953
aS'72\r\n'
p4954
aa(lp4955
S'-1'
p4956
ag20
aS'-551'
p4957
aS'71\r\n'
p4958
aa(lp4959
S'-4'
p4960
ag64
aS'-557'
p4961
aS'76\r\n'
p4962
aa(lp4963
S'-2'
p4964
ag586
aS'-558'
p4965
aS'75\r\n'
p4966
aa(lp4967
S'-2'
p4968
aS'11'
p4969
aS'-563'
p4970
aS'71\r\n'
p4971
aa(lp4972
g74
ag74
aS'-561'
p4973
aS'74\r\n'
p4974
aa(lp4975
g20
ag20
aS'-564'
p4976
aS'75\r\n'
p4977
aa(lp4978
S'-3'
p4979
aS'-3'
p4980
aS'-559'
p4981
aS'71\r\n'
p4982
aa(lp4983
S'-3'
p4984
aS'-2'
p4985
aS'-559'
p4986
aS'72\r\n'
p4987
aa(lp4988
S'-2'
p4989
aS'-7'
p4990
aS'-563'
p4991
aS'71\r\n'
p4992
aa(lp4993
S'-1'
p4994
ag20
aS'-563'
p4995
aS'74\r\n'
p4996
aa(lp4997
S'-3'
p4998
ag74
aS'-555'
p4999
aS'72\r\n'
p5000
aa(lp5001
g20
ag20
aS'-552'
p5002
aS'71\r\n'
p5003
aa(lp5004
S'-2'
p5005
aS'-2'
p5006
aS'-556'
p5007
aS'71\r\n'
p5008
aa(lp5009
S'-1'
p5010
aS'-2'
p5011
aS'-561'
p5012
aS'71\r\n'
p5013
aa(lp5014
g74
aS'-2'
p5015
aS'-561'
p5016
aS'75\r\n'
p5017
aa(lp5018
g5
aS'-3'
p5019
aS'-566'
p5020
aS'73\r\n'
p5021
aa(lp5022
S'10'
p5023
aS'-8'
p5024
aS'-573'
p5025
aS'72\r\n'
p5026
aa(lp5027
g74
aS'-5'
p5028
aS'-569'
p5029
aS'76\r\n'
p5030
aa(lp5031
S'-2'
p5032
aS'-1'
p5033
aS'-570'
p5034
aS'75\r\n'
p5035
aa(lp5036
S'-2'
p5037
aS'-1'
p5038
aS'-566'
p5039
aS'75\r\n'
p5040
aa(lp5041
S'-3'
p5042
aS'-7'
p5043
aS'-568'
p5044
aS'74\r\n'
p5045
aa(lp5046
S'-8'
p5047
aS'-5'
p5048
aS'-572'
p5049
aS'74\r\n'
p5050
aa(lp5051
S'-9'
p5052
ag20
aS'-561'
p5053
aS'72\r\n'
p5054
aa(lp5055
S'-5'
p5056
aS'-3'
p5057
aS'-561'
p5058
aS'75\r\n'
p5059
aa(lp5060
S'-6'
p5061
aS'-3'
p5062
aS'-564'
p5063
aS'74\r\n'
p5064
aa(lp5065
S'-2'
p5066
aS'-1'
p5067
aS'-555'
p5068
aS'73\r\n'
p5069
aa(lp5070
S'-1'
p5071
ag69
aS'-553'
p5072
aS'71\r\n'
p5073
aa(lp5074
S'-4'
p5075
ag5
aS'-564'
p5076
aS'71\r\n'
p5077
aa(lp5078
S'-2'
p5079
ag586
aS'-561'
p5080
aS'71\r\n'
p5081
aa(lp5082
g15
aS'11'
p5083
aS'-565'
p5084
aS'71\r\n'
p5085
aa(lp5086
g5
ag74
aS'-568'
p5087
aS'71\r\n'
p5088
aa(lp5089
g69
aS'-1'
p5090
aS'-566'
p5091
aS'73\r\n'
p5092
aa(lp5093
g5
ag74
aS'-563'
p5094
aS'73\r\n'
p5095
aa(lp5096
g10
ag20
aS'-568'
p5097
aS'75\r\n'
p5098
aa(lp5099
g74
aS'-4'
p5100
aS'-567'
p5101
aS'72\r\n'
p5102
aa(lp5103
g20
aS'-4'
p5104
aS'-562'
p5105
aS'71\r\n'
p5106
aa(lp5107
S'-2'
p5108
aS'-4'
p5109
aS'-561'
p5110
aS'73\r\n'
p5111
aa(lp5112
S'-1'
p5113
aS'-5'
p5114
aS'-559'
p5115
aS'73\r\n'
p5116
aa(lp5117
g74
ag74
aS'-561'
p5118
aS'74\r\n'
p5119
aa(lp5120
g20
ag5
aS'-554'
p5121
aS'73\r\n'
p5122
aa(lp5123
S'-3'
p5124
ag74
aS'-556'
p5125
aS'76\r\n'
p5126
aa(lp5127
S'-5'
p5128
ag74
aS'-564'
p5129
aS'75\r\n'
p5130
aa(lp5131
S'-1'
p5132
ag20
aS'-568'
p5133
aS'76\r\n'
p5134
aa(lp5135
g20
ag20
aS'-579'
p5136
aS'73\r\n'
p5137
aa(lp5138
S'-1'
p5139
ag20
aS'-578'
p5140
aS'71\r\n'
p5141
aa(lp5142
S'-2'
p5143
ag20
aS'-573'
p5144
aS'71\r\n'
p5145
aa(lp5146
g20
ag64
aS'-569'
p5147
aS'75\r\n'
p5148
aa(lp5149
g74
ag5
aS'-583'
p5150
aS'76\r\n'
p5151
aa(lp5152
g10
ag74
aS'-565'
p5153
aS'74\r\n'
p5154
aa(lp5155
g69
ag64
aS'-567'
p5156
aS'72\r\n'
p5157
aa(lp5158
g20
ag69
aS'-563'
p5159
aS'75\r\n'
p5160
aa(lp5161
g20
ag5
aS'-565'
p5162
aS'73\r\n'
p5163
aa(lp5164
S'-5'
p5165
ag586
aS'-561'
p5166
aS'72\r\n'
p5167
aa(lp5168
S'-4'
p5169
ag10
aS'-562'
p5170
aS'76\r\n'
p5171
aa(lp5172
S'-5'
p5173
ag5
aS'-568'
p5174
aS'74\r\n'
p5175
aa(lp5176
S'-6'
p5177
ag586
aS'-568'
p5178
aS'73\r\n'
p5179
aa(lp5180
S'-5'
p5181
ag15
aS'-568'
p5182
aS'76\r\n'
p5183
aa(lp5184
S'-5'
p5185
ag277
aS'-570'
p5186
aS'73\r\n'
p5187
aa(lp5188
S'-5'
p5189
ag64
aS'-571'
p5190
aS'74\r\n'
p5191
aa(lp5192
S'-3'
p5193
ag20
aS'-568'
p5194
aS'75\r\n'
p5195
aa(lp5196
S'-5'
p5197
aS'-3'
p5198
aS'-559'
p5199
aS'74\r\n'
p5200
aa(lp5201
g74
aS'-4'
p5202
aS'-553'
p5203
aS'72\r\n'
p5204
aa(lp5205
S'-4'
p5206
ag20
aS'-552'
p5207
aS'71\r\n'
p5208
aa(lp5209
g74
ag64
aS'-559'
p5210
aS'74\r\n'
p5211
aa(lp5212
g74
ag15
aS'-564'
p5213
aS'72\r\n'
p5214
aa(lp5215
S'-3'
p5216
ag64
aS'-564'
p5217
aS'71\r\n'
p5218
aa(lp5219
S'-2'
p5220
ag69
aS'-561'
p5221
aS'73\r\n'
p5222
aa(lp5223
S'-1'
p5224
ag64
aS'-560'
p5225
aS'75\r\n'
p5226
aa(lp5227
S'-1'
p5228
ag277
aS'-563'
p5229
aS'75\r\n'
p5230
aa(lp5231
S'-7'
p5232
aS'13'
p5233
aS'-566'
p5234
aS'71\r\n'
p5235
aa(lp5236
S'-3'
p5237
aS'11'
p5238
aS'-564'
p5239
aS'72\r\n'
p5240
aa(lp5241
S'-1'
p5242
aS'10'
p5243
aS'-558'
p5244
aS'75\r\n'
p5245
aa(lp5246
S'-5'
p5247
ag15
aS'-566'
p5248
aS'75\r\n'
p5249
aa(lp5250
S'-2'
p5251
ag15
aS'-565'
p5252
aS'73\r\n'
p5253
aa(lp5254
g20
aS'11'
p5255
aS'-562'
p5256
aS'71\r\n'
p5257
aa(lp5258
g69
aS'10'
p5259
aS'-559'
p5260
aS'76\r\n'
p5261
aa(lp5262
g10
ag15
aS'-562'
p5263
aS'75\r\n'
p5264
aa(lp5265
S'-1'
p5266
ag5
aS'-566'
p5267
aS'71\r\n'
p5268
aa(lp5269
S'-2'
p5270
ag10
aS'-567'
p5271
aS'75\r\n'
p5272
aa(lp5273
S'-4'
p5274
ag128
aS'-571'
p5275
aS'75\r\n'
p5276
aa(lp5277
g20
ag15
aS'-568'
p5278
aS'75\r\n'
p5279
aa(lp5280
g20
aS'10'
p5281
aS'-566'
p5282
aS'75\r\n'
p5283
aa(lp5284
S'-1'
p5285
aS'13'
p5286
aS'-556'
p5287
aS'76\r\n'
p5288
aa(lp5289
S'-5'
p5290
aS'12'
p5291
aS'-549'
p5292
aS'74\r\n'
p5293
aa(lp5294
S'-4'
p5295
ag586
aS'-555'
p5296
aS'71\r\n'
p5297
aa(lp5298
S'-3'
p5299
ag69
aS'-557'
p5300
aS'76\r\n'
p5301
aa(lp5302
g74
ag5
aS'-553'
p5303
aS'76\r\n'
p5304
aa(lp5305
g74
aS'-2'
p5306
aS'-557'
p5307
aS'74\r\n'
p5308
aa(lp5309
g69
aS'-4'
p5310
aS'-553'
p5311
aS'76\r\n'
p5312
aa(lp5313
g74
ag20
aS'-558'
p5314
aS'76\r\n'
p5315
aa(lp5316
g20
ag64
aS'-561'
p5317
aS'76\r\n'
p5318
aa(lp5319
g20
ag128
aS'-563'
p5320
aS'76\r\n'
p5321
aa(lp5322
S'-2'
p5323
ag15
aS'-556'
p5324
aS'75\r\n'
p5325
aa(lp5326
S'-6'
p5327
aS'10'
p5328
aS'-557'
p5329
aS'71\r\n'
p5330
aa(lp5331
S'-3'
p5332
aS'10'
p5333
aS'-554'
p5334
aS'73\r\n'
p5335
aa(lp5336
S'-10'
p5337
aS'11'
p5338
aS'-549'
p5339
aS'71\r\n'
p5340
aa(lp5341
S'-8'
p5342
ag20
aS'-556'
p5343
aS'72\r\n'
p5344
aa(lp5345
S'-7'
p5346
ag74
aS'-558'
p5347
aS'73\r\n'
p5348
aa(lp5349
S'-5'
p5350
ag20
aS'-551'
p5351
aS'72\r\n'
p5352
aa(lp5353
S'-4'
p5354
aS'-1'
p5355
aS'-552'
p5356
aS'71\r\n'
p5357
aa(lp5358
g20
aS'-1'
p5359
aS'-559'
p5360
aS'71\r\n'
p5361
aa(lp5362
g69
ag20
aS'-557'
p5363
aS'73\r\n'
p5364
aa(lp5365
g10
ag69
aS'-550'
p5366
aS'75\r\n'
p5367
aa(lp5368
S'-3'
p5369
aS'-4'
p5370
aS'-552'
p5371
aS'76\r\n'
p5372
aa(lp5373
g5
ag74
aS'-558'
p5374
aS'76\r\n'
p5375
aa(lp5376
g15
aS'-2'
p5377
aS'-560'
p5378
aS'76\r\n'
p5379
aa(lp5380
g64
aS'-8'
p5381
aS'-558'
p5382
aS'74\r\n'
p5383
aa(lp5384
g69
aS'-16'
p5385
aS'-563'
p5386
aS'75\r\n'
p5387
aa(lp5388
g20
aS'-12'
p5389
aS'-574'
p5390
aS'72\r\n'
p5391
aa(lp5392
g20
aS'-5'
p5393
aS'-568'
p5394
aS'75\r\n'
p5395
aa(lp5396
S'-3'
p5397
ag74
aS'-569'
p5398
aS'72\r\n'
p5399
aa(lp5400
S'-6'
p5401
ag20
aS'-564'
p5402
aS'71\r\n'
p5403
aa(lp5404
S'-4'
p5405
ag10
aS'-561'
p5406
aS'72\r\n'
p5407
aa(lp5408
S'-4'
p5409
aS'12'
p5410
aS'-562'
p5411
aS'73\r\n'
p5412
aa(lp5413
S'-7'
p5414
aS'22'
p5415
aS'-553'
p5416
aS'73\r\n'
p5417
aa(lp5418
S'-7'
p5419
aS'24'
p5420
aS'-560'
p5421
aS'75\r\n'
p5422
aa(lp5423
S'-9'
p5424
aS'25'
p5425
aS'-561'
p5426
aS'75\r\n'
p5427
aa(lp5428
S'-13'
p5429
aS'20'
p5430
aS'-557'
p5431
aS'75\r\n'
p5432
aa(lp5433
S'-12'
p5434
aS'18'
p5435
aS'-555'
p5436
aS'76\r\n'
p5437
aa(lp5438
S'-5'
p5439
aS'17'
p5440
aS'-556'
p5441
aS'71\r\n'
p5442
aa(lp5443
S'-6'
p5444
aS'10'
p5445
aS'-559'
p5446
aS'71\r\n'
p5447
aa(lp5448
S'-5'
p5449
aS'13'
p5450
aS'-558'
p5451
aS'76\r\n'
p5452
aa(lp5453
S'-4'
p5454
aS'12'
p5455
aS'-564'
p5456
aS'76\r\n'
p5457
aa(lp5458
S'-4'
p5459
aS'10'
p5460
aS'-560'
p5461
aS'75\r\n'
p5462
aa(lp5463
S'-3'
p5464
ag5
aS'-564'
p5465
aS'73\r\n'
p5466
aa(lp5467
S'-1'
p5468
ag5
aS'-557'
p5469
aS'74\r\n'
p5470
aa(lp5471
g20
ag20
aS'-555'
p5472
aS'75\r\n'
p5473
aa(lp5474
S'-4'
p5475
ag10
aS'-540'
p5476
aS'71\r\n'
p5477
aa(lp5478
S'-9'
p5479
ag277
aS'-558'
p5480
aS'76\r\n'
p5481
aa(lp5482
S'-13'
p5483
ag277
aS'-557'
p5484
aS'72\r\n'
p5485
aa(lp5486
S'-10'
p5487
aS'10'
p5488
aS'-567'
p5489
aS'73\r\n'
p5490
aa(lp5491
S'-1'
p5492
ag10
aS'-562'
p5493
aS'75\r\n'
p5494
aa(lp5495
g20
aS'-2'
p5496
aS'-553'
p5497
aS'76\r\n'
p5498
aa(lp5499
S'-6'
p5500
aS'-3'
p5501
aS'-559'
p5502
aS'76\r\n'
p5503
aa(lp5504
S'-7'
p5505
aS'13'
p5506
aS'-556'
p5507
aS'73\r\n'
p5508
aa(lp5509
S'-10'
p5510
aS'21'
p5511
aS'-561'
p5512
aS'74\r\n'
p5513
aa(lp5514
S'-11'
p5515
aS'23'
p5516
aS'-569'
p5517
aS'71\r\n'
p5518
aa(lp5519
S'-6'
p5520
aS'20'
p5521
aS'-567'
p5522
aS'76\r\n'
p5523
aa(lp5524
S'-1'
p5525
ag128
aS'-565'
p5526
aS'73\r\n'
p5527
aa(lp5528
g69
aS'-9'
p5529
aS'-570'
p5530
aS'74\r\n'
p5531
aa(lp5532
g586
aS'-18'
p5533
aS'-564'
p5534
aS'74\r\n'
p5535
aa(lp5536
g586
aS'-23'
p5537
aS'-565'
p5538
aS'73\r\n'
p5539
aa(lp5540
g69
aS'-19'
p5541
aS'-564'
p5542
aS'71\r\n'
p5543
aa(lp5544
S'-5'
p5545
aS'-11'
p5546
aS'-566'
p5547
aS'75\r\n'
p5548
aa(lp5549
S'-6'
p5550
ag20
aS'-565'
p5551
aS'73\r\n'
p5552
aa(lp5553
S'-14'
p5554
aS'16'
p5555
aS'-574'
p5556
aS'74\r\n'
p5557
aa(lp5558
S'-18'
p5559
aS'28'
p5560
aS'-567'
p5561
aS'72\r\n'
p5562
aa(lp5563
S'-16'
p5564
aS'30'
p5565
aS'-567'
p5566
aS'75\r\n'
p5567
aa(lp5568
S'-13'
p5569
aS'24'
p5570
aS'-568'
p5571
aS'72\r\n'
p5572
aa(lp5573
S'-9'
p5574
ag277
aS'-560'
p5575
aS'76\r\n'
p5576
aa(lp5577
S'-4'
p5578
aS'-2'
p5579
aS'-566'
p5580
aS'72\r\n'
p5581
aa(lp5582
S'-3'
p5583
aS'-7'
p5584
aS'-566'
p5585
aS'75\r\n'
p5586
aa(lp5587
S'-4'
p5588
aS'-10'
p5589
aS'-554'
p5590
aS'71\r\n'
p5591
aa(lp5592
S'-1'
p5593
aS'-7'
p5594
aS'-549'
p5595
aS'73\r\n'
p5596
aa(lp5597
S'-3'
p5598
aS'-2'
p5599
aS'-555'
p5600
aS'71\r\n'
p5601
aa(lp5602
S'-1'
p5603
ag74
aS'-551'
p5604
aS'71\r\n'
p5605
aa(lp5606
S'-4'
p5607
aS'11'
p5608
aS'-546'
p5609
aS'73\r\n'
p5610
aa(lp5611
S'-6'
p5612
aS'15'
p5613
aS'-551'
p5614
aS'73\r\n'
p5615
aa(lp5616
S'-9'
p5617
aS'20'
p5618
aS'-548'
p5619
aS'73\r\n'
p5620
aa(lp5621
S'-9'
p5622
aS'17'
p5623
aS'-549'
p5624
aS'75\r\n'
p5625
aa(lp5626
S'-8'
p5627
aS'15'
p5628
aS'-562'
p5629
aS'71\r\n'
p5630
aa(lp5631
S'-6'
p5632
aS'11'
p5633
aS'-553'
p5634
aS'76\r\n'
p5635
aa(lp5636
S'-7'
p5637
ag15
aS'-566'
p5638
aS'75\r\n'
p5639
aa(lp5640
S'-3'
p5641
aS'-1'
p5642
aS'-560'
p5643
aS'73\r\n'
p5644
aa(lp5645
S'-3'
p5646
aS'-9'
p5647
aS'-564'
p5648
aS'73\r\n'
p5649
aa(lp5650
S'-3'
p5651
aS'-11'
p5652
aS'-557'
p5653
aS'74\r\n'
p5654
aa(lp5655
S'-6'
p5656
aS'-14'
p5657
aS'-563'
p5658
aS'72\r\n'
p5659
aa(lp5660
S'-1'
p5661
aS'-6'
p5662
aS'-558'
p5663
aS'73\r\n'
p5664
aa(lp5665
S'-3'
p5666
ag74
aS'-557'
p5667
aS'72\r\n'
p5668
aa(lp5669
S'-11'
p5670
aS'14'
p5671
aS'-565'
p5672
aS'74\r\n'
p5673
aa(lp5674
S'-13'
p5675
aS'17'
p5676
aS'-567'
p5677
aS'75\r\n'
p5678
aa(lp5679
S'-11'
p5680
aS'17'
p5681
aS'-563'
p5682
aS'73\r\n'
p5683
aa(lp5684
S'-13'
p5685
aS'12'
p5686
aS'-567'
p5687
aS'71\r\n'
p5688
aa(lp5689
S'-8'
p5690
ag5
aS'-577'
p5691
aS'73\r\n'
p5692
aa(lp5693
S'-4'
p5694
aS'-18'
p5695
aS'-598'
p5696
aS'75\r\n'
p5697
aa(lp5698
S'18'
p5699
aS'-33'
p5700
aS'-529'
p5701
aS'76\r\n'
p5702
aa(lp5703
g277
aS'-39'
p5704
aS'-558'
p5705
aS'75\r\n'
p5706
aa(lp5707
g20
aS'-1'
p5708
aS'-583'
p5709
aS'73\r\n'
p5710
aa(lp5711
S'-8'
p5712
aS'20'
p5713
aS'-543'
p5714
aS'71\r\n'
p5715
aa(lp5716
S'-12'
p5717
aS'26'
p5718
aS'-551'
p5719
aS'76\r\n'
p5720
aa(lp5721
S'-12'
p5722
aS'21'
p5723
aS'-559'
p5724
aS'72\r\n'
p5725
aa(lp5726
S'-15'
p5727
aS'16'
p5728
aS'-548'
p5729
aS'71\r\n'
p5730
aa(lp5731
S'-11'
p5732
aS'25'
p5733
aS'-551'
p5734
aS'75\r\n'
p5735
aa(lp5736
S'-13'
p5737
aS'30'
p5738
aS'-566'
p5739
aS'75\r\n'
p5740
aa(lp5741
S'-3'
p5742
aS'20'
p5743
aS'-559'
p5744
aS'76\r\n'
p5745
aa(lp5746
g20
ag20
aS'-572'
p5747
aS'75\r\n'
p5748
aa(lp5749
S'14'
p5750
aS'-14'
p5751
aS'-558'
p5752
aS'75\r\n'
p5753
aa(lp5754
g277
aS'-17'
p5755
aS'-561'
p5756
aS'71\r\n'
p5757
aa(lp5758
g128
aS'-10'
p5759
aS'-564'
p5760
aS'76\r\n'
p5761
aa(lp5762
g128
ag20
aS'-555'
p5763
aS'75\r\n'
p5764
aa(lp5765
g5
ag20
aS'-562'
p5766
aS'72\r\n'
p5767
aa(lp5768
S'10'
p5769
aS'-4'
p5770
aS'-558'
p5771
aS'74\r\n'
p5772
aa(lp5773
g64
aS'-12'
p5774
aS'-561'
p5775
aS'75\r\n'
p5776
aa(lp5777
g64
ag20
aS'-564'
p5778
aS'72\r\n'
p5779
aa(lp5780
g74
aS'-1'
p5781
aS'-564'
p5782
aS'75\r\n'
p5783
aa(lp5784
S'-2'
p5785
aS'-6'
p5786
aS'-567'
p5787
aS'71\r\n'
p5788
aa(lp5789
S'-1'
p5790
aS'-11'
p5791
aS'-565'
p5792
aS'72\r\n'
p5793
aa(lp5794
g20
aS'-20'
p5795
aS'-555'
p5796
aS'75\r\n'
p5797
aa(lp5798
S'-1'
p5799
aS'-8'
p5800
aS'-564'
p5801
aS'75\r\n'
p5802
aa(lp5803
S'-8'
p5804
ag586
aS'-560'
p5805
aS'76\r\n'
p5806
aa(lp5807
S'-14'
p5808
aS'30'
p5809
aS'-557'
p5810
aS'71\r\n'
p5811
aa(lp5812
S'-14'
p5813
aS'41'
p5814
aS'-556'
p5815
aS'71\r\n'
p5816
aa(lp5817
S'-13'
p5818
aS'38'
p5819
aS'-542'
p5820
aS'72\r\n'
p5821
aa(lp5822
S'-14'
p5823
aS'26'
p5824
aS'-554'
p5825
aS'72\r\n'
p5826
aa(lp5827
S'-15'
p5828
aS'16'
p5829
aS'-559'
p5830
aS'71\r\n'
p5831
aa(lp5832
S'-9'
p5833
ag586
aS'-561'
p5834
aS'74\r\n'
p5835
aa(lp5836
S'-7'
p5837
ag277
aS'-550'
p5838
aS'76\r\n'
p5839
aa(lp5840
S'-5'
p5841
ag5
aS'-564'
p5842
aS'72\r\n'
p5843
aa(lp5844
g74
aS'-15'
p5845
aS'-560'
p5846
aS'72\r\n'
p5847
aa(lp5848
g64
aS'-37'
p5849
aS'-560'
p5850
aS'76\r\n'
p5851
aa(lp5852
S'15'
p5853
aS'-45'
p5854
aS'-556'
p5855
aS'73\r\n'
p5856
aa(lp5857
S'12'
p5858
aS'-33'
p5859
aS'-558'
p5860
aS'74\r\n'
p5861
aa(lp5862
g128
aS'-13'
p5863
aS'-561'
p5864
aS'74\r\n'
p5865
aa(lp5866
S'-2'
p5867
aS'16'
p5868
aS'-555'
p5869
aS'76\r\n'
p5870
aa(lp5871
S'-16'
p5872
aS'36'
p5873
aS'-560'
p5874
aS'76\r\n'
p5875
aa(lp5876
S'-27'
p5877
aS'55'
p5878
aS'-555'
p5879
aS'73\r\n'
p5880
aa(lp5881
S'-28'
p5882
aS'52'
p5883
aS'-552'
p5884
aS'73\r\n'
p5885
aa(lp5886
S'-24'
p5887
aS'46'
p5888
aS'-554'
p5889
aS'75\r\n'
p5890
aa(lp5891
S'-15'
p5892
aS'25'
p5893
aS'-543'
p5894
aS'76\r\n'
p5895
aa(lp5896
g20
aS'-2'
p5897
aS'-550'
p5898
aS'72\r\n'
p5899
aa(lp5900
S'12'
p5901
aS'-38'
p5902
aS'-547'
p5903
aS'76\r\n'
p5904
aa(lp5905
S'17'
p5906
aS'-59'
p5907
aS'-551'
p5908
aS'76\r\n'
p5909
aa(lp5910
S'15'
p5911
aS'-69'
p5912
aS'-563'
p5913
aS'74\r\n'
p5914
aa(lp5915
g128
aS'-48'
p5916
aS'-562'
p5917
aS'74\r\n'
p5918
aa(lp5919
S'-3'
p5920
aS'-10'
p5921
aS'-567'
p5922
aS'74\r\n'
p5923
aa(lp5924
S'-16'
p5925
aS'21'
p5926
aS'-563'
p5927
aS'74\r\n'
p5928
aa(lp5929
S'-22'
p5930
aS'44'
p5931
aS'-554'
p5932
aS'75\r\n'
p5933
aa(lp5934
S'-26'
p5935
aS'56'
p5936
aS'-561'
p5937
aS'75\r\n'
p5938
aa(lp5939
S'-29'
p5940
aS'57'
p5941
aS'-559'
p5942
aS'76\r\n'
p5943
aa(lp5944
S'-20'
p5945
aS'42'
p5946
aS'-565'
p5947
aS'76\r\n'
p5948
aa(lp5949
S'-14'
p5950
aS'21'
p5951
aS'-561'
p5952
aS'72\r\n'
p5953
aa(lp5954
S'-5'
p5955
aS'-4'
p5956
aS'-553'
p5957
aS'72\r\n'
p5958
aa(lp5959
g20
aS'-24'
p5960
aS'-560'
p5961
aS'76\r\n'
p5962
aa(lp5963
g15
aS'-36'
p5964
aS'-559'
p5965
aS'71\r\n'
p5966
aa(lp5967
g15
aS'-34'
p5968
aS'-564'
p5969
aS'71\r\n'
p5970
aa(lp5971
g69
aS'-20'
p5972
aS'-559'
p5973
aS'74\r\n'
p5974
aa(lp5975
g20
aS'-4'
p5976
aS'-552'
p5977
aS'74\r\n'
p5978
aa(lp5979
S'-5'
p5980
ag5
aS'-554'
p5981
aS'72\r\n'
p5982
aa(lp5983
S'-9'
p5984
aS'18'
p5985
aS'-558'
p5986
aS'73\r\n'
p5987
aa(lp5988
S'-11'
p5989
aS'23'
p5990
aS'-558'
p5991
aS'72\r\n'
p5992
aa(lp5993
S'-10'
p5994
aS'25'
p5995
aS'-552'
p5996
aS'75\r\n'
p5997
aa(lp5998
S'-9'
p5999
aS'22'
p6000
aS'-549'
p6001
aS'72\r\n'
p6002
aa(lp6003
S'-9'
p6004
aS'13'
p6005
aS'-552'
p6006
aS'74\r\n'
p6007
aa(lp6008
S'-8'
p6009
ag10
aS'-554'
p6010
aS'75\r\n'
p6011
aa(lp6012
S'-5'
p6013
aS'-6'
p6014
aS'-553'
p6015
aS'75\r\n'
p6016
aa(lp6017
S'-1'
p6018
aS'-12'
p6019
aS'-546'
p6020
aS'72\r\n'
p6021
aa(lp6022
g74
aS'-13'
p6023
aS'-584'
p6024
aS'72\r\n'
p6025
aa(lp6026
g69
aS'-13'
p6027
aS'-543'
p6028
aS'75\r\n'
p6029
aa(lp6030
g20
aS'-11'
p6031
aS'-580'
p6032
aS'73\r\n'
p6033
aa(lp6034
g128
aS'-8'
p6035
aS'-560'
p6036
aS'72\r\n'
p6037
aa(lp6038
S'-6'
p6039
ag277
aS'-548'
p6040
aS'71\r\n'
p6041
aa(lp6042
S'-11'
p6043
aS'21'
p6044
aS'-576'
p6045
aS'74\r\n'
p6046
aa(lp6047
S'-15'
p6048
aS'28'
p6049
aS'-563'
p6050
aS'73\r\n'
p6051
aa(lp6052
S'-13'
p6053
aS'24'
p6054
aS'-563'
p6055
aS'75\r\n'
p6056
aa(lp6057
S'-12'
p6058
aS'16'
p6059
aS'-563'
p6060
aS'71\r\n'
p6061
aa(lp6062
S'-5'
p6063
ag128
aS'-562'
p6064
aS'71\r\n'
p6065
aa(lp6066
g20
aS'-5'
p6067
aS'-567'
p6068
aS'74\r\n'
p6069
aa(lp6070
g10
aS'-22'
p6071
aS'-561'
p6072
aS'72\r\n'
p6073
aa(lp6074
g64
aS'-24'
p6075
aS'-561'
p6076
aS'72\r\n'
p6077
aa(lp6078
g20
aS'-19'
p6079
aS'-565'
p6080
aS'74\r\n'
p6081
aa(lp6082
S'-6'
p6083
aS'-2'
p6084
aS'-567'
p6085
aS'73\r\n'
p6086
aa(lp6087
S'-8'
p6088
aS'14'
p6089
aS'-564'
p6090
aS'75\r\n'
p6091
aa(lp6092
S'-9'
p6093
aS'20'
p6094
aS'-560'
p6095
aS'72\r\n'
p6096
aa(lp6097
S'-10'
p6098
aS'25'
p6099
aS'-555'
p6100
aS'72\r\n'
p6101
aa(lp6102
S'-11'
p6103
aS'24'
p6104
aS'-564'
p6105
aS'72\r\n'
p6106
aa(lp6107
S'-9'
p6108
aS'19'
p6109
aS'-565'
p6110
aS'72\r\n'
p6111
aa(lp6112
S'-5'
p6113
aS'11'
p6114
aS'-563'
p6115
aS'75\r\n'
p6116
aa(lp6117
S'-2'
p6118
ag74
aS'-566'
p6119
aS'76\r\n'
p6120
aa(lp6121
g20
aS'-6'
p6122
aS'-571'
p6123
aS'71\r\n'
p6124
aa(lp6125
g20
aS'-8'
p6126
aS'-574'
p6127
aS'72\r\n'
p6128
aa(lp6129
g20
aS'-6'
p6130
aS'-578'
p6131
aS'75\r\n'
p6132
aa(lp6133
S'-2'
p6134
aS'-1'
p6135
aS'-574'
p6136
aS'71\r\n'
p6137
aa(lp6138
S'-6'
p6139
ag128
aS'-574'
p6140
aS'71\r\n'
p6141
aa(lp6142
S'-5'
p6143
ag586
aS'-565'
p6144
aS'75\r\n'
p6145
aa(lp6146
S'-4'
p6147
aS'12'
p6148
aS'-558'
p6149
aS'71\r\n'
p6150
aa(lp6151
S'-5'
p6152
aS'18'
p6153
aS'-556'
p6154
aS'71\r\n'
p6155
aa(lp6156
S'-10'
p6157
aS'11'
p6158
aS'-564'
p6159
aS'76\r\n'
p6160
aa(lp6161
S'-3'
p6162
ag586
aS'-554'
p6163
aS'75\r\n'
p6164
aa(lp6165
S'-3'
p6166
ag20
aS'-554'
p6167
aS'71\r\n'
p6168
aa(lp6169
S'-7'
p6170
ag10
aS'-548'
p6171
aS'76\r\n'
p6172
aa(lp6173
S'-7'
p6174
aS'11'
p6175
aS'-555'
p6176
aS'74\r\n'
p6177
aa(lp6178
S'-7'
p6179
aS'13'
p6180
aS'-559'
p6181
aS'71\r\n'
p6182
aa(lp6183
S'-8'
p6184
aS'17'
p6185
aS'-560'
p6186
aS'76\r\n'
p6187
aa(lp6188
S'-6'
p6189
aS'10'
p6190
aS'-563'
p6191
aS'75\r\n'
p6192
aa(lp6193
S'-3'
p6194
ag586
aS'-559'
p6195
aS'71\r\n'
p6196
aa(lp6197
S'-3'
p6198
ag277
aS'-561'
p6199
aS'71\r\n'
p6200
aa(lp6201
S'-3'
p6202
ag277
aS'-561'
p6203
aS'74\r\n'
p6204
aa(lp6205
S'-2'
p6206
ag15
aS'-558'
p6207
aS'76\r\n'
p6208
aa(lp6209
S'-6'
p6210
ag5
aS'-558'
p6211
aS'75\r\n'
p6212
aa(lp6213
S'-3'
p6214
ag20
aS'-551'
p6215
aS'72\r\n'
p6216
aa(lp6217
S'-3'
p6218
ag74
aS'-559'
p6219
aS'71\r\n'
p6220
aa(lp6221
S'-4'
p6222
ag10
aS'-559'
p6223
aS'72\r\n'
p6224
aa(lp6225
S'-4'
p6226
ag74
aS'-558'
p6227
aS'72\r\n'
p6228
aa(lp6229
S'-3'
p6230
ag10
aS'-557'
p6231
aS'76\r\n'
p6232
aa(lp6233
S'-5'
p6234
ag586
aS'-558'
p6235
aS'76\r\n'
p6236
aa(lp6237
S'-5'
p6238
ag5
aS'-558'
p6239
aS'76\r\n'
p6240
aa(lp6241
S'-4'
p6242
ag5
aS'-562'
p6243
aS'73\r\n'
p6244
aa(lp6245
S'-6'
p6246
ag15
aS'-562'
p6247
aS'74\r\n'
p6248
aa(lp6249
S'-2'
p6250
aS'10'
p6251
aS'-560'
p6252
aS'71\r\n'
p6253
aa(lp6254
S'-1'
p6255
aS'12'
p6256
aS'-553'
p6257
aS'73\r\n'
p6258
aa(lp6259
g20
ag277
aS'-557'
p6260
aS'71\r\n'
p6261
aa(lp6262
S'-3'
p6263
ag128
aS'-554'
p6264
aS'71\r\n'
p6265
aa(lp6266
S'-9'
p6267
ag15
aS'-555'
p6268
aS'72\r\n'
p6269
aa(lp6270
S'-6'
p6271
aS'10'
p6272
aS'-551'
p6273
aS'75\r\n'
p6274
aa(lp6275
S'-8'
p6276
ag586
aS'-547'
p6277
aS'74\r\n'
p6278
aa(lp6279
S'-4'
p6280
ag5
aS'-555'
p6281
aS'71\r\n'
p6282
aa(lp6283
S'-5'
p6284
ag5
aS'-567'
p6285
aS'71\r\n'
p6286
aa(lp6287
S'-4'
p6288
ag10
aS'-567'
p6289
aS'71\r\n'
p6290
aa(lp6291
S'-3'
p6292
aS'10'
p6293
aS'-574'
p6294
aS'76\r\n'
p6295
aa(lp6296
S'-5'
p6297
ag277
aS'-575'
p6298
aS'75\r\n'
p6299
aa(lp6300
S'-3'
p6301
ag277
aS'-569'
p6302
aS'73\r\n'
p6303
aa(lp6304
S'-2'
p6305
ag277
aS'-569'
p6306
aS'75\r\n'
p6307
aa(lp6308
g64
ag64
aS'-573'
p6309
aS'76\r\n'
p6310
aa(lp6311
g64
ag20
aS'-577'
p6312
aS'76\r\n'
p6313
aa(lp6314
g5
aS'-2'
p6315
aS'-580'
p6316
aS'71\r\n'
p6317
aa(lp6318
g69
aS'-5'
p6319
aS'-573'
p6320
aS'72\r\n'
p6321
aa(lp6322
g20
aS'-3'
p6323
aS'-574'
p6324
aS'71\r\n'
p6325
aa(lp6326
S'-2'
p6327
ag10
aS'-569'
p6328
aS'75\r\n'
p6329
aa(lp6330
S'-7'
p6331
aS'10'
p6332
aS'-567'
p6333
aS'74\r\n'
p6334
aa(lp6335
S'-8'
p6336
aS'10'
p6337
aS'-564'
p6338
aS'73\r\n'
p6339
aa(lp6340
S'-10'
p6341
ag586
aS'-557'
p6342
aS'73\r\n'
p6343
aa(lp6344
S'-11'
p6345
aS'11'
p6346
aS'-560'
p6347
aS'75\r\n'
p6348
aa(lp6349
S'-5'
p6350
aS'12'
p6351
aS'-565'
p6352
aS'73\r\n'
p6353
aa(lp6354
S'-2'
p6355
ag277
aS'-569'
p6356
aS'76\r\n'
p6357
aa(lp6358
g69
ag74
aS'-561'
p6359
aS'72\r\n'
p6360
aa(lp6361
g64
aS'-9'
p6362
aS'-557'
p6363
aS'76\r\n'
p6364
aa(lp6365
g69
aS'-9'
p6366
aS'-558'
p6367
aS'76\r\n'
p6368
aa(lp6369
g74
aS'-1'
p6370
aS'-564'
p6371
aS'72\r\n'
p6372
aa(lp6373
S'52'
p6374
ag5
aS'-562'
p6375
aS'72\r\n'
p6376
aa(lp6377
S'11'
p6378
ag74
aS'-559'
p6379
aS'75\r\n'
p6380
aa(lp6381
S'-14'
p6382
ag20
aS'-549'
p6383
aS'76\r\n'
p6384
aa(lp6385
S'-2'
p6386
aS'-5'
p6387
aS'-545'
p6388
aS'72\r\n'
p6389
aa(lp6390
S'-5'
p6391
aS'-2'
p6392
aS'-555'
p6393
aS'76\r\n'
p6394
aa(lp6395
S'-8'
p6396
ag69
aS'-561'
p6397
aS'74\r\n'
p6398
aa(lp6399
S'-3'
p6400
ag64
aS'-556'
p6401
aS'75\r\n'
p6402
aa(lp6403
S'-2'
p6404
ag20
aS'-559'
p6405
aS'76\r\n'
p6406
aa(lp6407
S'-1'
p6408
ag20
aS'-563'
p6409
aS'75\r\n'
p6410
aa(lp6411
g69
ag5
aS'-562'
p6412
aS'72\r\n'
p6413
aa(lp6414
g20
ag10
aS'-562'
p6415
aS'75\r\n'
p6416
aa(lp6417
g20
ag20
aS'-558'
p6418
aS'72\r\n'
p6419
aa(lp6420
S'-1'
p6421
aS'-1'
p6422
aS'-559'
p6423
aS'74\r\n'
p6424
aa(lp6425
g10
aS'-4'
p6426
aS'-561'
p6427
aS'72\r\n'
p6428
aa(lp6429
g20
aS'-2'
p6430
aS'-563'
p6431
aS'73\r\n'
p6432
aa(lp6433
S'-2'
p6434
ag20
aS'-564'
p6435
aS'74\r\n'
p6436
aa(lp6437
S'-3'
p6438
aS'-1'
p6439
aS'-561'
p6440
aS'75\r\n'
p6441
aa(lp6442
S'-4'
p6443
ag20
aS'-565'
p6444
aS'76\r\n'
p6445
aa(lp6446
S'-3'
p6447
aS'-3'
p6448
aS'-559'
p6449
aS'75\r\n'
p6450
aa(lp6451
S'-2'
p6452
aS'-4'
p6453
aS'-562'
p6454
aS'74\r\n'
p6455
aa(lp6456
g20
aS'-3'
p6457
aS'-565'
p6458
aS'73\r\n'
p6459
aa(lp6460
S'-2'
p6461
aS'-4'
p6462
aS'-561'
p6463
aS'73\r\n'
p6464
aa(lp6465
S'-4'
p6466
ag20
aS'-564'
p6467
aS'73\r\n'
p6468
aa(lp6469
S'-8'
p6470
ag74
aS'-567'
p6471
aS'71\r\n'
p6472
aa(lp6473
S'-2'
p6474
ag69
aS'-565'
p6475
aS'76\r\n'
p6476
aa(lp6477
S'-2'
p6478
ag10
aS'-562'
p6479
aS'71\r\n'
p6480
aa(lp6481
S'-5'
p6482
ag64
aS'-554'
p6483
aS'71\r\n'
p6484
aa(lp6485
S'-1'
p6486
ag128
aS'-558'
p6487
aS'74\r\n'
p6488
aa(lp6489
g20
ag5
aS'-564'
p6490
aS'75\r\n'
p6491
aa(lp6492
g69
ag69
aS'-553'
p6493
aS'75\r\n'
p6494
aa(lp6495
g20
ag128
aS'-556'
p6496
aS'75\r\n'
p6497
aa(lp6498
g20
ag5
aS'-556'
p6499
aS'76\r\n'
p6500
aa(lp6501
g74
ag10
aS'-561'
p6502
aS'72\r\n'
p6503
aa(lp6504
g20
ag69
aS'-564'
p6505
aS'71\r\n'
p6506
aa(lp6507
S'-4'
p6508
ag69
aS'-573'
p6509
aS'74\r\n'
p6510
aa(lp6511
S'-6'
p6512
aS'-2'
p6513
aS'-563'
p6514
aS'76\r\n'
p6515
aa(lp6516
S'-2'
p6517
aS'-1'
p6518
aS'-560'
p6519
aS'76\r\n'
p6520
aa(lp6521
S'-4'
p6522
aS'-2'
p6523
aS'-560'
p6524
aS'71\r\n'
p6525
aa(lp6526
g20
aS'-5'
p6527
aS'-555'
p6528
aS'75\r\n'
p6529
aa(lp6530
S'-2'
p6531
aS'-2'
p6532
aS'-557'
p6533
aS'76\r\n'
p6534
aa(lp6535
S'-5'
p6536
aS'-1'
p6537
aS'-558'
p6538
aS'75\r\n'
p6539
aa(lp6540
S'-1'
p6541
ag69
aS'-556'
p6542
aS'71\r\n'
p6543
aa(lp6544
S'-4'
p6545
ag69
aS'-554'
p6546
aS'72\r\n'
p6547
aa(lp6548
S'-8'
p6549
ag20
aS'-559'
p6550
aS'75\r\n'
p6551
aa(lp6552
S'-7'
p6553
ag74
aS'-556'
p6554
aS'72\r\n'
p6555
aa(lp6556
S'-5'
p6557
ag74
aS'-555'
p6558
aS'73\r\n'
p6559
aa(lp6560
S'-10'
p6561
ag74
aS'-554'
p6562
aS'73\r\n'
p6563
aa(lp6564
S'-10'
p6565
ag74
aS'-554'
p6566
aS'76\r\n'
p6567
aa(lp6568
S'-7'
p6569
aS'-1'
p6570
aS'-562'
p6571
aS'76\r\n'
p6572
aa(lp6573
S'-2'
p6574
aS'-5'
p6575
aS'-573'
p6576
aS'71\r\n'
p6577
aa(lp6578
S'-4'
p6579
aS'-4'
p6580
aS'-565'
p6581
aS'75\r\n'
p6582
aa(lp6583
S'-2'
p6584
aS'-2'
p6585
aS'-567'
p6586
aS'74\r\n'
p6587
aa(lp6588
S'-1'
p6589
aS'-1'
p6590
aS'-567'
p6591
aS'71\r\n'
p6592
aa(lp6593
S'-3'
p6594
ag20
aS'-567'
p6595
aS'76\r\n'
p6596
aa(lp6597
S'-3'
p6598
ag20
aS'-562'
p6599
aS'74\r\n'
p6600
aa(lp6601
S'-1'
p6602
ag20
aS'-565'
p6603
aS'71\r\n'
p6604
aa(lp6605
S'-3'
p6606
ag20
aS'-569'
p6607
aS'74\r\n'
p6608
aa(lp6609
S'-1'
p6610
aS'-7'
p6611
aS'-570'
p6612
aS'74\r\n'
p6613
aa(lp6614
g20
aS'-6'
p6615
aS'-568'
p6616
aS'74\r\n'
p6617
aa(lp6618
S'-1'
p6619
aS'-1'
p6620
aS'-564'
p6621
aS'73\r\n'
p6622
aa(lp6623
S'-3'
p6624
aS'-2'
p6625
aS'-563'
p6626
aS'76\r\n'
p6627
aa(lp6628
S'-4'
p6629
aS'-1'
p6630
aS'-565'
p6631
aS'71\r\n'
p6632
aa(lp6633
S'-6'
p6634
aS'-4'
p6635
aS'-561'
p6636
aS'71\r\n'
p6637
aa(lp6638
S'-8'
p6639
aS'-6'
p6640
aS'-555'
p6641
aS'74\r\n'
p6642
aa(lp6643
S'-9'
p6644
aS'-4'
p6645
aS'-554'
p6646
aS'75\r\n'
p6647
aa(lp6648
S'-7'
p6649
aS'-1'
p6650
aS'-559'
p6651
aS'76\r\n'
p6652
aa(lp6653
S'-8'
p6654
aS'-1'
p6655
aS'-564'
p6656
aS'71\r\n'
p6657
aa(lp6658
S'-8'
p6659
aS'-3'
p6660
aS'-571'
p6661
aS'71\r\n'
p6662
aa(lp6663
S'-4'
p6664
ag20
aS'-568'
p6665
aS'71\r\n'
p6666
aa(lp6667
S'-4'
p6668
ag74
aS'-561'
p6669
aS'75\r\n'
p6670
aa(lp6671
S'-6'
p6672
ag20
aS'-558'
p6673
aS'75\r\n'
p6674
aa(lp6675
S'-5'
p6676
aS'-1'
p6677
aS'-564'
p6678
aS'74\r\n'
p6679
aa(lp6680
S'-1'
p6681
aS'-2'
p6682
aS'-562'
p6683
aS'76\r\n'
p6684
aa(lp6685
S'-1'
p6686
aS'-2'
p6687
aS'-571'
p6688
aS'76\r\n'
p6689
aa(lp6690
g20
aS'-3'
p6691
aS'-568'
p6692
aS'73\r\n'
p6693
aa(lp6694
S'-1'
p6695
ag69
aS'-569'
p6696
aS'73\r\n'
p6697
aa(lp6698
S'-3'
p6699
ag20
aS'-567'
p6700
aS'76\r\n'
p6701
aa(lp6702
S'-4'
p6703
ag64
aS'-568'
p6704
aS'74\r\n'
p6705
aa(lp6706
S'-1'
p6707
ag10
aS'-569'
p6708
aS'71\r\n'
p6709
aa(lp6710
S'-2'
p6711
ag64
aS'-570'
p6712
aS'74\r\n'
p6713
aa(lp6714
S'-2'
p6715
ag5
aS'-568'
p6716
aS'76\r\n'
p6717
aa(lp6718
S'-1'
p6719
ag20
aS'-570'
p6720
aS'71\r\n'
p6721
aa(lp6722
S'-2'
p6723
ag74
aS'-570'
p6724
aS'72\r\n'
p6725
aa(lp6726
S'-2'
p6727
ag64
aS'-567'
p6728
aS'72\r\n'
p6729
aa(lp6730
S'-1'
p6731
ag74
aS'-559'
p6732
aS'73\r\n'
p6733
aa(lp6734
S'-1'
p6735
ag5
aS'-559'
p6736
aS'76\r\n'
p6737
aa(lp6738
g64
ag128
aS'-565'
p6739
aS'74\r\n'
p6740
aa(lp6741
g20
ag128
aS'-564'
p6742
aS'76\r\n'
p6743
aa(lp6744
S'-4'
p6745
ag69
aS'-559'
p6746
aS'74\r\n'
p6747
aa(lp6748
S'-3'
p6749
ag69
aS'-559'
p6750
aS'74\r\n'
p6751
aa(lp6752
S'-4'
p6753
ag74
aS'-561'
p6754
aS'74\r\n'
p6755
aa(lp6756
S'-5'
p6757
ag20
aS'-556'
p6758
aS'76\r\n'
p6759
aa(lp6760
S'-2'
p6761
aS'-3'
p6762
aS'-562'
p6763
aS'72\r\n'
p6764
aa(lp6765
S'-2'
p6766
aS'-2'
p6767
aS'-559'
p6768
aS'73\r\n'
p6769
aa(lp6770
S'-1'
p6771
aS'-1'
p6772
aS'-555'
p6773
aS'75\r\n'
p6774
aa(lp6775
S'-3'
p6776
ag69
aS'-553'
p6777
aS'76\r\n'
p6778
aa(lp6779
S'-3'
p6780
ag20
aS'-559'
p6781
aS'76\r\n'
p6782
aa(lp6783
S'-4'
p6784
ag20
aS'-557'
p6785
aS'74\r\n'
p6786
aa(lp6787
S'-3'
p6788
ag10
aS'-560'
p6789
aS'72\r\n'
p6790
aa(lp6791
S'-4'
p6792
ag74
aS'-554'
p6793
aS'72\r\n'
p6794
aa(lp6795
S'-3'
p6796
aS'-1'
p6797
aS'-561'
p6798
aS'74\r\n'
p6799
aa(lp6800
S'-2'
p6801
ag74
aS'-564'
p6802
aS'76\r\n'
p6803
aa(lp6804
S'-1'
p6805
ag20
aS'-560'
p6806
aS'73\r\n'
p6807
aa(lp6808
S'-5'
p6809
ag69
aS'-560'
p6810
aS'73\r\n'
p6811
aa(lp6812
S'-5'
p6813
ag10
aS'-565'
p6814
aS'74\r\n'
p6815
aa(lp6816
S'-3'
p6817
ag20
aS'-564'
p6818
aS'73\r\n'
p6819
aa(lp6820
S'-6'
p6821
aS'-2'
p6822
aS'-557'
p6823
aS'76\r\n'
p6824
aa(lp6825
S'-6'
p6826
aS'-2'
p6827
aS'-557'
p6828
aS'76\r\n'
p6829
aa(lp6830
S'-4'
p6831
aS'-6'
p6832
aS'-552'
p6833
aS'74\r\n'
p6834
aa(lp6835
S'-4'
p6836
aS'-3'
p6837
aS'-566'
p6838
aS'71\r\n'
p6839
aa(lp6840
S'-6'
p6841
aS'-5'
p6842
aS'-569'
p6843
aS'75\r\n'
p6844
aa(lp6845
S'-3'
p6846
aS'-2'
p6847
aS'-564'
p6848
aS'73\r\n'
p6849
aa(lp6850
g69
aS'-1'
p6851
aS'-562'
p6852
aS'72\r\n'
p6853
aa(lp6854
g277
aS'-2'
p6855
aS'-558'
p6856
aS'73\r\n'
p6857
aa(lp6858
g586
aS'-5'
p6859
aS'-564'
p6860
aS'75\r\n'
p6861
aa(lp6862
g10
aS'-1'
p6863
aS'-562'
p6864
aS'73\r\n'
p6865
aa(lp6866
g20
aS'-3'
p6867
aS'-562'
p6868
aS'71\r\n'
p6869
aa(lp6870
S'-4'
p6871
ag20
aS'-564'
p6872
aS'76\r\n'
p6873
aa(lp6874
S'-1'
p6875
aS'-7'
p6876
aS'-558'
p6877
aS'76\r\n'
p6878
aa(lp6879
g20
aS'-11'
p6880
aS'-560'
p6881
aS'74\r\n'
p6882
aa(lp6883
g69
aS'-13'
p6884
aS'-561'
p6885
aS'71\r\n'
p6886
aa(lp6887
g10
aS'-8'
p6888
aS'-568'
p6889
aS'72\r\n'
p6890
aa(lp6891
g64
aS'-7'
p6892
aS'-572'
p6893
aS'71\r\n'
p6894
aa(lp6895
g20
aS'-9'
p6896
aS'-574'
p6897
aS'73\r\n'
p6898
aa(lp6899
g20
aS'-11'
p6900
aS'-567'
p6901
aS'72\r\n'
p6902
aa(lp6903
S'-1'
p6904
aS'-3'
p6905
aS'-570'
p6906
aS'75\r\n'
p6907
aa(lp6908
S'-3'
p6909
aS'-3'
p6910
aS'-571'
p6911
aS'71\r\n'
p6912
aa(lp6913
S'-2'
p6914
aS'-1'
p6915
aS'-568'
p6916
aS'75\r\n'
p6917
aa(lp6918
S'-4'
p6919
ag69
aS'-569'
p6920
aS'76\r\n'
p6921
aa(lp6922
S'-1'
p6923
ag64
aS'-566'
p6924
aS'72\r\n'
p6925
aa(lp6926
S'-1'
p6927
ag20
aS'-570'
p6928
aS'73\r\n'
p6929
aa(lp6930
S'-1'
p6931
ag74
aS'-565'
p6932
aS'75\r\n'
p6933
aa(lp6934
g10
ag64
aS'-557'
p6935
aS'72\r\n'
p6936
aa(lp6937
g74
ag69
aS'-556'
p6938
aS'76\r\n'
p6939
aa(lp6940
S'-1'
p6941
ag74
aS'-552'
p6942
aS'76\r\n'
p6943
aa(lp6944
g74
aS'-4'
p6945
aS'-559'
p6946
aS'74\r\n'
p6947
aa(lp6948
g20
ag20
aS'-565'
p6949
aS'71\r\n'
p6950
aa(lp6951
S'-3'
p6952
ag64
aS'-577'
p6953
aS'73\r\n'
p6954
aa(lp6955
S'-1'
p6956
ag128
aS'-571'
p6957
aS'75\r\n'
p6958
aa(lp6959
g20
ag15
aS'-567'
p6960
aS'71\r\n'
p6961
aa(lp6962
S'-7'
p6963
aS'11'
p6964
aS'-567'
p6965
aS'73\r\n'
p6966
aa(lp6967
S'-7'
p6968
aS'11'
p6969
aS'-566'
p6970
aS'76\r\n'
p6971
aa(lp6972
S'-10'
p6973
aS'11'
p6974
aS'-564'
p6975
aS'74\r\n'
p6976
aa(lp6977
S'-4'
p6978
ag277
aS'-567'
p6979
aS'76\r\n'
p6980
aa(lp6981
g20
ag5
aS'-563'
p6982
aS'76\r\n'
p6983
aa(lp6984
g10
ag128
aS'-568'
p6985
aS'75\r\n'
p6986
aa(lp6987
g5
aS'-3'
p6988
aS'-566'
p6989
aS'72\r\n'
p6990
aa(lp6991
S'-2'
p6992
aS'-1'
p6993
aS'-559'
p6994
aS'73\r\n'
p6995
aa(lp6996
g69
ag64
aS'-561'
p6997
aS'71\r\n'
p6998
aa(lp6999
S'-3'
p7000
ag74
aS'-562'
p7001
aS'73\r\n'
p7002
aa(lp7003
S'-7'
p7004
ag20
aS'-563'
p7005
aS'72\r\n'
p7006
aa(lp7007
S'-3'
p7008
ag20
aS'-557'
p7009
aS'72\r\n'
p7010
aa(lp7011
S'-2'
p7012
aS'-3'
p7013
aS'-561'
p7014
aS'76\r\n'
p7015
aa(lp7016
g69
ag10
aS'-557'
p7017
aS'73\r\n'
p7018
aa(lp7019
g20
ag69
aS'-560'
p7020
aS'75\r\n'
p7021
aa(lp7022
S'-3'
p7023
ag74
aS'-551'
p7024
aS'74\r\n'
p7025
aa(lp7026
S'-5'
p7027
ag20
aS'-555'
p7028
aS'76\r\n'
p7029
aa(lp7030
S'-3'
p7031
ag64
aS'-557'
p7032
aS'76\r\n'
p7033
aa(lp7034
S'-4'
p7035
ag64
aS'-565'
p7036
aS'75\r\n'
p7037
aa(lp7038
S'-5'
p7039
ag74
aS'-561'
p7040
aS'73\r\n'
p7041
aa(lp7042
S'-4'
p7043
ag20
aS'-557'
p7044
aS'72\r\n'
p7045
aa(lp7046
S'-2'
p7047
aS'-4'
p7048
aS'-561'
p7049
aS'74\r\n'
p7050
aa(lp7051
S'-2'
p7052
ag20
aS'-558'
p7053
aS'76\r\n'
p7054
aa(lp7055
S'-7'
p7056
aS'-1'
p7057
aS'-552'
p7058
aS'71\r\n'
p7059
aa(lp7060
S'-6'
p7061
aS'-1'
p7062
aS'-553'
p7063
aS'75\r\n'
p7064
aa(lp7065
g20
aS'-1'
p7066
aS'-550'
p7067
aS'76\r\n'
p7068
aa(lp7069
g20
aS'-3'
p7070
aS'-554'
p7071
aS'73\r\n'
p7072
aa(lp7073
g5
aS'-4'
p7074
aS'-556'
p7075
aS'72\r\n'
p7076
aa(lp7077
g64
aS'-7'
p7078
aS'-559'
p7079
aS'76\r\n'
p7080
aa(lp7081
g10
aS'-4'
p7082
aS'-557'
p7083
aS'71\r\n'
p7084
aa(lp7085
g69
aS'-4'
p7086
aS'-557'
p7087
aS'72\r\n'
p7088
aa(lp7089
g20
aS'-5'
p7090
aS'-558'
p7091
aS'72\r\n'
p7092
aa(lp7093
S'-3'
p7094
aS'-5'
p7095
aS'-559'
p7096
aS'75\r\n'
p7097
aa(lp7098
S'-4'
p7099
aS'-3'
p7100
aS'-560'
p7101
aS'76\r\n'
p7102
aa(lp7103
S'-7'
p7104
aS'-6'
p7105
aS'-559'
p7106
aS'75\r\n'
p7107
aa(lp7108
S'-5'
p7109
aS'-1'
p7110
aS'-563'
p7111
aS'71\r\n'
p7112
aa(lp7113
S'-7'
p7114
ag20
aS'-568'
p7115
aS'72\r\n'
p7116
aa(lp7117
S'-5'
p7118
ag10
aS'-560'
p7119
aS'71\r\n'
p7120
aa(lp7121
g20
aS'-1'
p7122
aS'-555'
p7123
aS'75\r\n'
p7124
aa(lp7125
g20
aS'-1'
p7126
aS'-551'
p7127
aS'74\r\n'
p7128
aa(lp7129
S'-1'
p7130
ag64
aS'-556'
p7131
aS'76\r\n'
p7132
aa(lp7133
S'-1'
p7134
ag20
aS'-554'
p7135
aS'74\r\n'
p7136
aa(lp7137
S'-5'
p7138
ag64
aS'-564'
p7139
aS'76\r\n'
p7140
aa(lp7141
S'-5'
p7142
ag64
aS'-562'
p7143
aS'72\r\n'
p7144
aa(lp7145
S'-3'
p7146
ag64
aS'-566'
p7147
aS'75\r\n'
p7148
aa(lp7149
S'-1'
p7150
ag74
aS'-566'
p7151
aS'74\r\n'
p7152
aa(lp7153
S'-2'
p7154
aS'-2'
p7155
aS'-568'
p7156
aS'72\r\n'
p7157
aa(lp7158
S'-3'
p7159
aS'-7'
p7160
aS'-564'
p7161
aS'72\r\n'
p7162
aa(lp7163
S'-7'
p7164
aS'-6'
p7165
aS'-567'
p7166
aS'75\r\n'
p7167
aa(lp7168
S'-3'
p7169
aS'-5'
p7170
aS'-566'
p7171
aS'75\r\n'
p7172
aa(lp7173
S'-7'
p7174
ag20
aS'-569'
p7175
aS'72\r\n'
p7176
aa(lp7177
S'-11'
p7178
aS'-4'
p7179
aS'-576'
p7180
aS'73\r\n'
p7181
aa(lp7182
S'-14'
p7183
aS'-1'
p7184
aS'-567'
p7185
aS'71\r\n'
p7186
aa(lp7187
S'-8'
p7188
aS'-1'
p7189
aS'-561'
p7190
aS'74\r\n'
p7191
aa(lp7192
S'-3'
p7193
ag20
aS'-572'
p7194
aS'72\r\n'
p7195
aa(lp7196
g20
aS'-2'
p7197
aS'-572'
p7198
aS'71\r\n'
p7199
aa(lp7200
S'-3'
p7201
aS'-2'
p7202
aS'-573'
p7203
aS'73\r\n'
p7204
aa(lp7205
S'-4'
p7206
ag20
aS'-572'
p7207
aS'76\r\n'
p7208
aa(lp7209
S'-3'
p7210
ag20
aS'-568'
p7211
aS'71\r\n'
p7212
aa(lp7213
S'-3'
p7214
aS'-4'
p7215
aS'-563'
p7216
aS'76\r\n'
p7217
aa(lp7218
S'-4'
p7219
aS'-9'
p7220
aS'-568'
p7221
aS'74\r\n'
p7222
aa(lp7223
S'-8'
p7224
aS'-5'
p7225
aS'-569'
p7226
aS'75\r\n'
p7227
aa(lp7228
S'-6'
p7229
aS'-4'
p7230
aS'-573'
p7231
aS'75\r\n'
p7232
aa(lp7233
S'-1'
p7234
ag20
aS'-565'
p7235
aS'74\r\n'
p7236
aa(lp7237
g20
ag69
aS'-560'
p7238
aS'73\r\n'
p7239
aa(lp7240
S'-2'
p7241
aS'-1'
p7242
aS'-568'
p7243
aS'71\r\n'
p7244
aa(lp7245
S'-5'
p7246
ag20
aS'-565'
p7247
aS'76\r\n'
p7248
aa(lp7249
g20
aS'-5'
p7250
aS'-569'
p7251
aS'71\r\n'
p7252
aa(lp7253
g64
aS'-2'
p7254
aS'-564'
p7255
aS'76\r\n'
p7256
aa(lp7257
g10
ag20
aS'-564'
p7258
aS'71\r\n'
p7259
aa(lp7260
g20
aS'-4'
p7261
aS'-563'
p7262
aS'73\r\n'
p7263
aa(lp7264
g20
aS'-7'
p7265
aS'-559'
p7266
aS'75\r\n'
p7267
aa(lp7268
g69
aS'-8'
p7269
aS'-562'
p7270
aS'74\r\n'
p7271
aa(lp7272
S'-1'
p7273
aS'-10'
p7274
aS'-554'
p7275
aS'74\r\n'
p7276
aa(lp7277
g20
aS'-5'
p7278
aS'-550'
p7279
aS'74\r\n'
p7280
aa(lp7281
g20
aS'-5'
p7282
aS'-565'
p7283
aS'72\r\n'
p7284
aa(lp7285
g69
aS'-7'
p7286
aS'-567'
p7287
aS'75\r\n'
p7288
aa(lp7289
g20
aS'-7'
p7290
aS'-565'
p7291
aS'71\r\n'
p7292
aa(lp7293
S'-2'
p7294
aS'-2'
p7295
aS'-564'
p7296
aS'71\r\n'
p7297
aa(lp7298
S'-2'
p7299
aS'-2'
p7300
aS'-569'
p7301
aS'73\r\n'
p7302
aa(lp7303
S'-2'
p7304
aS'-1'
p7305
aS'-570'
p7306
aS'74\r\n'
p7307
aa(lp7308
S'-6'
p7309
ag74
aS'-572'
p7310
aS'75\r\n'
p7311
aa(lp7312
S'-10'
p7313
ag128
aS'-579'
p7314
aS'75\r\n'
p7315
aa(lp7316
S'-11'
p7317
ag5
aS'-568'
p7318
aS'72\r\n'
p7319
aa(lp7320
S'-9'
p7321
ag74
aS'-568'
p7322
aS'75\r\n'
p7323
aa(lp7324
S'-6'
p7325
ag5
aS'-569'
p7326
aS'76\r\n'
p7327
aa(lp7328
S'-7'
p7329
ag15
aS'-562'
p7330
aS'76\r\n'
p7331
aa(lp7332
S'-4'
p7333
ag5
aS'-557'
p7334
aS'72\r\n'
p7335
aa(lp7336
S'-5'
p7337
ag5
aS'-560'
p7338
aS'72\r\n'
p7339
aa(lp7340
S'-4'
p7341
ag69
aS'-559'
p7342
aS'76\r\n'
p7343
aa(lp7344
S'-6'
p7345
ag5
aS'-570'
p7346
aS'72\r\n'
p7347
aa(lp7348
S'-5'
p7349
ag5
aS'-568'
p7350
aS'74\r\n'
p7351
aa(lp7352
S'-2'
p7353
ag74
aS'-565'
p7354
aS'73\r\n'
p7355
aa(lp7356
g20
ag74
aS'-564'
p7357
aS'74\r\n'
p7358
aa(lp7359
S'-4'
p7360
ag20
aS'-565'
p7361
aS'74\r\n'
p7362
aa(lp7363
S'-8'
p7364
ag69
aS'-567'
p7365
aS'73\r\n'
p7366
aa(lp7367
S'-12'
p7368
ag20
aS'-571'
p7369
aS'75\r\n'
p7370
aa(lp7371
S'-8'
p7372
ag69
aS'-571'
p7373
aS'75\r\n'
p7374
aa(lp7375
S'-7'
p7376
ag20
aS'-566'
p7377
aS'76\r\n'
p7378
aa(lp7379
S'-6'
p7380
ag20
aS'-554'
p7381
aS'76\r\n'
p7382
aa(lp7383
S'-5'
p7384
aS'-1'
p7385
aS'-554'
p7386
aS'74\r\n'
p7387
aa(lp7388
g20
ag20
aS'-559'
p7389
aS'73\r\n'
p7390
aa(lp7391
S'-3'
p7392
ag74
aS'-555'
p7393
aS'73\r\n'
p7394
aa(lp7395
S'-4'
p7396
ag69
aS'-561'
p7397
aS'71\r\n'
p7398
aa(lp7399
S'-3'
p7400
ag20
aS'-560'
p7401
aS'76\r\n'
p7402
aa(lp7403
S'-4'
p7404
aS'-1'
p7405
aS'-564'
p7406
aS'75\r\n'
p7407
aa(lp7408
S'-1'
p7409
ag74
aS'-557'
p7410
aS'75\r\n'
p7411
aa(lp7412
S'-4'
p7413
ag69
aS'-562'
p7414
aS'76\r\n'
p7415
aa(lp7416
S'-5'
p7417
ag5
aS'-564'
p7418
aS'76\r\n'
p7419
aa(lp7420
S'-6'
p7421
aS'-1'
p7422
aS'-559'
p7423
aS'73\r\n'
p7424
aa(lp7425
S'-6'
p7426
ag69
aS'-555'
p7427
aS'74\r\n'
p7428
aa(lp7429
g5
ag20
aS'-553'
p7430
aS'76\r\n'
p7431
aa(lp7432
g64
ag20
aS'-545'
p7433
aS'76\r\n'
p7434
aa(lp7435
S'-1'
p7436
ag69
aS'-549'
p7437
aS'71\r\n'
p7438
aa(lp7439
g74
ag69
aS'-551'
p7440
aS'71\r\n'
p7441
aa(lp7442
S'-2'
p7443
aS'-1'
p7444
aS'-557'
p7445
aS'74\r\n'
p7446
aa(lp7447
g74
ag20
aS'-561'
p7448
aS'76\r\n'
p7449
aa(lp7450
S'-4'
p7451
ag20
aS'-567'
p7452
aS'72\r\n'
p7453
aa(lp7454
S'-10'
p7455
aS'-1'
p7456
aS'-572'
p7457
aS'71\r\n'
p7458
aa(lp7459
S'-9'
p7460
ag74
aS'-564'
p7461
aS'72\r\n'
p7462
aa(lp7463
S'-10'
p7464
aS'-3'
p7465
aS'-570'
p7466
aS'75\r\n'
p7467
aa(lp7468
S'-6'
p7469
ag69
aS'-572'
p7470
aS'74\r\n'
p7471
aa(lp7472
g20
aS'-3'
p7473
aS'-566'
p7474
aS'74\r\n'
p7475
aa(lp7476
S'-1'
p7477
aS'-6'
p7478
aS'-562'
p7479
aS'72\r\n'
p7480
aa(lp7481
g20
aS'-7'
p7482
aS'-558'
p7483
aS'76\r\n'
p7484
aa(lp7485
S'-1'
p7486
aS'-1'
p7487
aS'-551'
p7488
aS'71\r\n'
p7489
aa(lp7490
S'-3'
p7491
aS'-2'
p7492
aS'-561'
p7493
aS'76\r\n'
p7494
aa(lp7495
S'-6'
p7496
ag10
aS'-561'
p7497
aS'76\r\n'
p7498
aa(lp7499
S'-4'
p7500
ag69
aS'-561'
p7501
aS'71\r\n'
p7502
aa(lp7503
S'-8'
p7504
ag64
aS'-565'
p7505
aS'73\r\n'
p7506
aa(lp7507
S'-3'
p7508
ag64
aS'-563'
p7509
aS'71\r\n'
p7510
aa(lp7511
S'-6'
p7512
ag64
aS'-561'
p7513
aS'73\r\n'
p7514
aa(lp7515
S'-3'
p7516
ag74
aS'-558'
p7517
aS'73\r\n'
p7518
aa(lp7519
S'-7'
p7520
ag74
aS'-561'
p7521
aS'72\r\n'
p7522
aa(lp7523
S'-5'
p7524
ag74
aS'-563'
p7525
aS'76\r\n'
p7526
aa(lp7527
S'-4'
p7528
ag74
aS'-564'
p7529
aS'75\r\n'
p7530
aa(lp7531
S'-1'
p7532
aS'-5'
p7533
aS'-551'
p7534
aS'73\r\n'
p7535
aa(lp7536
g74
aS'-7'
p7537
aS'-551'
p7538
aS'73\r\n'
p7539
aa(lp7540
S'-2'
p7541
aS'-11'
p7542
aS'-552'
p7543
aS'76\r\n'
p7544
aa(lp7545
S'-1'
p7546
aS'-10'
p7547
aS'-561'
p7548
aS'74\r\n'
p7549
aa(lp7550
S'-3'
p7551
aS'-5'
p7552
aS'-563'
p7553
aS'74\r\n'
p7554
aa(lp7555
S'-1'
p7556
aS'-5'
p7557
aS'-561'
p7558
aS'74\r\n'
p7559
aa(lp7560
S'-2'
p7561
aS'-9'
p7562
aS'-563'
p7563
aS'75\r\n'
p7564
aa(lp7565
g20
aS'-3'
p7566
aS'-558'
p7567
aS'74\r\n'
p7568
aa(lp7569
S'-1'
p7570
aS'-4'
p7571
aS'-562'
p7572
aS'76\r\n'
p7573
aa(lp7574
S'-1'
p7575
aS'-1'
p7576
aS'-560'
p7577
aS'73\r\n'
p7578
aa(lp7579
S'-3'
p7580
ag69
aS'-559'
p7581
aS'71\r\n'
p7582
aa(lp7583
g20
aS'-1'
p7584
aS'-562'
p7585
aS'74\r\n'
p7586
aa(lp7587
S'-2'
p7588
aS'-1'
p7589
aS'-556'
p7590
aS'75\r\n'
p7591
aa(lp7592
S'-7'
p7593
ag74
aS'-558'
p7594
aS'71\r\n'
p7595
aa(lp7596
S'-5'
p7597
ag69
aS'-550'
p7598
aS'74\r\n'
p7599
aa(lp7600
S'-5'
p7601
ag20
aS'-554'
p7602
aS'72\r\n'
p7603
aa(lp7604
S'-5'
p7605
aS'-3'
p7606
aS'-560'
p7607
aS'71\r\n'
p7608
aa(lp7609
S'-4'
p7610
aS'-3'
p7611
aS'-558'
p7612
aS'71\r\n'
p7613
aa(lp7614
g20
aS'-5'
p7615
aS'-562'
p7616
aS'74\r\n'
p7617
aa(lp7618
g20
aS'-3'
p7619
aS'-572'
p7620
aS'73\r\n'
p7621
aa(lp7622
S'-5'
p7623
ag5
aS'-573'
p7624
aS'75\r\n'
p7625
aa(lp7626
S'-4'
p7627
ag74
aS'-568'
p7628
aS'72\r\n'
p7629
aa(lp7630
g20
ag20
aS'-562'
p7631
aS'72\r\n'
p7632
aa(lp7633
S'-1'
p7634
ag20
aS'-565'
p7635
aS'71\r\n'
p7636
aa(lp7637
g20
aS'-4'
p7638
aS'-561'
p7639
aS'76\r\n'
p7640
aa(lp7641
g10
aS'-4'
p7642
aS'-555'
p7643
aS'75\r\n'
p7644
aa(lp7645
g74
ag74
aS'-552'
p7646
aS'72\r\n'
p7647
aa(lp7648
S'-3'
p7649
aS'-3'
p7650
aS'-552'
p7651
aS'76\r\n'
p7652
aa(lp7653
S'-2'
p7654
aS'-4'
p7655
aS'-555'
p7656
aS'76\r\n'
p7657
aa(lp7658
g20
ag74
aS'-555'
p7659
aS'72\r\n'
p7660
aa(lp7661
S'-3'
p7662
aS'-1'
p7663
aS'-556'
p7664
aS'71\r\n'
p7665
aa(lp7666
S'-2'
p7667
aS'-4'
p7668
aS'-552'
p7669
aS'74\r\n'
p7670
aa(lp7671
g74
ag20
aS'-555'
p7672
aS'76\r\n'
p7673
aa(lp7674
g5
ag20
aS'-554'
p7675
aS'74\r\n'
p7676
aa(lp7677
g5
ag20
aS'-559'
p7678
aS'72\r\n'
p7679
aa(lp7680
g5
aS'-1'
p7681
aS'-560'
p7682
aS'74\r\n'
p7683
aa(lp7684
g128
ag20
aS'-562'
p7685
aS'72\r\n'
p7686
aa(lp7687
S'-1'
p7688
ag74
aS'-561'
p7689
aS'73\r\n'
p7690
aa(lp7691
g20
ag20
aS'-562'
p7692
aS'71\r\n'
p7693
aa(lp7694
g74
aS'-1'
p7695
aS'-559'
p7696
aS'74\r\n'
p7697
aa(lp7698
g20
aS'-1'
p7699
aS'-558'
p7700
aS'72\r\n'
p7701
aa(lp7702
g20
ag10
aS'-556'
p7703
aS'75\r\n'
p7704
aa(lp7705
g20
aS'10'
p7706
aS'-554'
p7707
aS'76\r\n'
p7708
aa(lp7709
g20
ag74
aS'-560'
p7710
aS'75\r\n'
p7711
aa(lp7712
g10
aS'-1'
p7713
aS'-561'
p7714
aS'71\r\n'
p7715
aa(lp7716
g128
aS'-4'
p7717
aS'-561'
p7718
aS'74\r\n'
p7719
aa(lp7720
g5
ag69
aS'-567'
p7721
aS'71\r\n'
p7722
aa(lp7723
g10
ag128
aS'-569'
p7724
aS'75\r\n'
p7725
aa(lp7726
g69
ag20
aS'-574'
p7727
aS'72\r\n'
p7728
aa(lp7729
g69
ag5
aS'-574'
p7730
aS'74\r\n'
p7731
aa(lp7732
g74
ag15
aS'-570'
p7733
aS'73\r\n'
p7734
aa(lp7735
g10
ag64
aS'-564'
p7736
aS'74\r\n'
p7737
aa(lp7738
g20
aS'-1'
p7739
aS'-561'
p7740
aS'73\r\n'
p7741
aa(lp7742
S'-5'
p7743
ag20
aS'-569'
p7744
aS'72\r\n'
p7745
aa(lp7746
S'-4'
p7747
ag69
aS'-571'
p7748
aS'76\r\n'
p7749
aa(lp7750
S'-3'
p7751
aS'-2'
p7752
aS'-569'
p7753
aS'74\r\n'
p7754
aa(lp7755
g20
ag69
aS'-566'
p7756
aS'72\r\n'
p7757
aa(lp7758
S'-2'
p7759
ag74
aS'-561'
p7760
aS'71\r\n'
p7761
aa(lp7762
S'-6'
p7763
ag69
aS'-563'
p7764
aS'72\r\n'
p7765
aa(lp7766
S'-3'
p7767
ag69
aS'-558'
p7768
aS'73\r\n'
p7769
aa(lp7770
S'-4'
p7771
ag20
aS'-570'
p7772
aS'73\r\n'
p7773
aa(lp7774
S'-4'
p7775
ag10
aS'-564'
p7776
aS'76\r\n'
p7777
aa(lp7778
S'-4'
p7779
ag20
aS'-563'
p7780
aS'76\r\n'
p7781
aa(lp7782
S'-4'
p7783
ag74
aS'-557'
p7784
aS'74\r\n'
p7785
aa(lp7786
S'-7'
p7787
ag69
aS'-565'
p7788
aS'72\r\n'
p7789
aa(lp7790
S'-4'
p7791
ag5
aS'-562'
p7792
aS'73\r\n'
p7793
aa(lp7794
S'-5'
p7795
ag15
aS'-566'
p7796
aS'74\r\n'
p7797
aa(lp7798
S'-2'
p7799
ag15
aS'-556'
p7800
aS'71\r\n'
p7801
aa(lp7802
S'-1'
p7803
ag128
aS'-547'
p7804
aS'73\r\n'
p7805
aa(lp7806
S'-5'
p7807
ag128
aS'-556'
p7808
aS'71\r\n'
p7809
aa(lp7810
S'-1'
p7811
ag69
aS'-558'
p7812
aS'72\r\n'
p7813
aa(lp7814
g10
ag69
aS'-570'
p7815
aS'76\r\n'
p7816
aa(lp7817
g69
ag128
aS'-562'
p7818
aS'75\r\n'
p7819
aa(lp7820
g10
ag74
aS'-563'
p7821
aS'71\r\n'
p7822
aa(lp7823
g20
ag5
aS'-567'
p7824
aS'75\r\n'
p7825
aa(lp7826
S'-5'
p7827
ag128
aS'-566'
p7828
aS'75\r\n'
p7829
aa(lp7830
S'-3'
p7831
ag74
aS'-557'
p7832
aS'74\r\n'
p7833
aa(lp7834
g15
aS'-1'
p7835
aS'-560'
p7836
aS'73\r\n'
p7837
aa(lp7838
g64
aS'-4'
p7839
aS'-571'
p7840
aS'73\r\n'
p7841
aa(lp7842
g15
ag69
aS'-573'
p7843
aS'73\r\n'
p7844
aa(lp7845
S'-1'
p7846
ag10
aS'-574'
p7847
aS'72\r\n'
p7848
aa(lp7849
S'-2'
p7850
ag74
aS'-572'
p7851
aS'75\r\n'
p7852
aa(lp7853
S'-6'
p7854
ag20
aS'-577'
p7855
aS'73\r\n'
p7856
aa(lp7857
S'-2'
p7858
ag10
aS'-576'
p7859
aS'76\r\n'
p7860
aa(lp7861
S'-4'
p7862
ag20
aS'-576'
p7863
aS'71\r\n'
p7864
aa(lp7865
S'-1'
p7866
aS'-3'
p7867
aS'-582'
p7868
aS'73\r\n'
p7869
aa(lp7870
g20
ag20
aS'-580'
p7871
aS'74\r\n'
p7872
aa(lp7873
g20
ag20
aS'-573'
p7874
aS'76\r\n'
p7875
aa(lp7876
S'-2'
p7877
ag74
aS'-575'
p7878
aS'72\r\n'
p7879
aa(lp7880
S'-4'
p7881
ag74
aS'-571'
p7882
aS'75\r\n'
p7883
aa(lp7884
S'-2'
p7885
aS'-5'
p7886
aS'-565'
p7887
aS'72\r\n'
p7888
aa(lp7889
S'-3'
p7890
aS'-1'
p7891
aS'-561'
p7892
aS'74\r\n'
p7893
aa(lp7894
S'-4'
p7895
ag74
aS'-556'
p7896
aS'73\r\n'
p7897
aa(lp7898
S'-5'
p7899
ag74
aS'-566'
p7900
aS'71\r\n'
p7901
aa(lp7902
S'-6'
p7903
ag15
aS'-570'
p7904
aS'73\r\n'
p7905
aa(lp7906
S'-2'
p7907
ag64
aS'-567'
p7908
aS'74\r\n'
p7909
aa(lp7910
S'-2'
p7911
ag20
aS'-559'
p7912
aS'76\r\n'
p7913
aa(lp7914
S'-2'
p7915
aS'-4'
p7916
aS'-552'
p7917
aS'72\r\n'
p7918
aa(lp7919
S'-8'
p7920
ag20
aS'-557'
p7921
aS'74\r\n'
p7922
aa(lp7923
S'-6'
p7924
ag69
aS'-554'
p7925
aS'72\r\n'
p7926
aa(lp7927
S'-5'
p7928
ag20
aS'-551'
p7929
aS'72\r\n'
p7930
aa(lp7931
S'-2'
p7932
aS'-3'
p7933
aS'-541'
p7934
aS'75\r\n'
p7935
aa(lp7936
g69
aS'-2'
p7937
aS'-553'
p7938
aS'72\r\n'
p7939
aa(lp7940
g20
aS'-1'
p7941
aS'-556'
p7942
aS'73\r\n'
p7943
aa(lp7944
S'-2'
p7945
aS'-3'
p7946
aS'-562'
p7947
aS'73\r\n'
p7948
aa(lp7949
S'-3'
p7950
aS'-4'
p7951
aS'-568'
p7952
aS'75\r\n'
p7953
aa(lp7954
g20
aS'-4'
p7955
aS'-570'
p7956
aS'71\r\n'
p7957
aa(lp7958
g10
aS'-3'
p7959
aS'-571'
p7960
aS'73\r\n'
p7961
aa(lp7962
g69
ag69
aS'-567'
p7963
aS'72\r\n'
p7964
aa(lp7965
S'-2'
p7966
ag20
aS'-567'
p7967
aS'74\r\n'
p7968
aa(lp7969
S'-4'
p7970
ag20
aS'-563'
p7971
aS'71\r\n'
p7972
aa(lp7973
g10
ag20
aS'-559'
p7974
aS'75\r\n'
p7975
aa(lp7976
g128
ag15
aS'-562'
p7977
aS'74\r\n'
p7978
aa(lp7979
S'-2'
p7980
ag74
aS'-559'
p7981
aS'74\r\n'
p7982
aa(lp7983
S'-4'
p7984
ag74
aS'-555'
p7985
aS'72\r\n'
p7986
aa(lp7987
S'-1'
p7988
ag74
aS'-554'
p7989
aS'71\r\n'
p7990
aa(lp7991
S'-1'
p7992
ag69
aS'-556'
p7993
aS'72\r\n'
p7994
aa(lp7995
S'-2'
p7996
ag20
aS'-562'
p7997
aS'75\r\n'
p7998
aa(lp7999
S'-3'
p8000
ag20
aS'-570'
p8001
aS'76\r\n'
p8002
aa(lp8003
S'-3'
p8004
aS'-3'
p8005
aS'-573'
p8006
aS'71\r\n'
p8007
aa(lp8008
g20
aS'-2'
p8009
aS'-573'
p8010
aS'75\r\n'
p8011
aa(lp8012
g20
aS'-2'
p8013
aS'-574'
p8014
aS'76\r\n'
p8015
aa(lp8016
g10
ag10
aS'-572'
p8017
aS'76\r\n'
p8018
aa(lp8019
g69
ag69
aS'-566'
p8020
aS'76\r\n'
p8021
aa(lp8022
g74
ag20
aS'-559'
p8023
aS'74\r\n'
p8024
aa(lp8025
g10
aS'-1'
p8026
aS'-554'
p8027
aS'75\r\n'
p8028
aa(lp8029
g20
ag20
aS'-556'
p8030
aS'76\r\n'
p8031
aa(lp8032
S'-1'
p8033
ag74
aS'-555'
p8034
aS'72\r\n'
p8035
aa(lp8036
S'-3'
p8037
aS'-1'
p8038
aS'-555'
p8039
aS'73\r\n'
p8040
aa(lp8041
g20
aS'-1'
p8042
aS'-558'
p8043
aS'71\r\n'
p8044
aa(lp8045
g20
ag20
aS'-557'
p8046
aS'72\r\n'
p8047
aa(lp8048
g20
aS'-2'
p8049
aS'-568'
p8050
aS'76\r\n'
p8051
aa(lp8052
S'-1'
p8053
aS'-5'
p8054
aS'-570'
p8055
aS'74\r\n'
p8056
aa(lp8057
S'-2'
p8058
aS'-5'
p8059
aS'-571'
p8060
aS'73\r\n'
p8061
aa(lp8062
S'-8'
p8063
aS'-7'
p8064
aS'-569'
p8065
aS'71\r\n'
p8066
aa(lp8067
S'-8'
p8068
aS'-5'
p8069
aS'-561'
p8070
aS'73\r\n'
p8071
aa(lp8072
S'-6'
p8073
aS'-2'
p8074
aS'-565'
p8075
aS'71\r\n'
p8076
aa(lp8077
S'-5'
p8078
aS'-3'
p8079
aS'-571'
p8080
aS'76\r\n'
p8081
aa(lp8082
S'-3'
p8083
ag20
aS'-570'
p8084
aS'71\r\n'
p8085
aa(lp8086
S'-3'
p8087
aS'-1'
p8088
aS'-571'
p8089
aS'72\r\n'
p8090
aa(lp8091
S'-2'
p8092
ag64
aS'-560'
p8093
aS'71\r\n'
p8094
aa(lp8095
S'-3'
p8096
ag69
aS'-556'
p8097
aS'71\r\n'
p8098
aa(lp8099
S'-2'
p8100
ag20
aS'-553'
p8101
aS'71\r\n'
p8102
aa(lp8103
S'-2'
p8104
ag10
aS'-551'
p8105
aS'75\r\n'
p8106
aa(lp8107
S'-4'
p8108
ag20
aS'-551'
p8109
aS'73\r\n'
p8110
aa(lp8111
S'-2'
p8112
ag20
aS'-555'
p8113
aS'73\r\n'
p8114
aa(lp8115
S'-3'
p8116
ag5
aS'-557'
p8117
aS'74\r\n'
p8118
aa(lp8119
S'-6'
p8120
ag64
aS'-561'
p8121
aS'76\r\n'
p8122
aa(lp8123
g74
ag10
aS'-551'
p8124
aS'72\r\n'
p8125
aa(lp8126
S'-2'
p8127
ag64
aS'-551'
p8128
aS'71\r\n'
p8129
aa(lp8130
S'-3'
p8131
ag74
aS'-551'
p8132
aS'75\r\n'
p8133
aa(lp8134
S'-1'
p8135
ag10
aS'-550'
p8136
aS'71\r\n'
p8137
aa(lp8138
g69
ag5
aS'-553'
p8139
aS'71\r\n'
p8140
aa(lp8141
g64
ag128
aS'-555'
p8142
aS'74\r\n'
p8143
aa(lp8144
S'-2'
p8145
ag64
aS'-547'
p8146
aS'72\r\n'
p8147
aa(lp8148
S'-1'
p8149
ag74
aS'-553'
p8150
aS'73\r\n'
p8151
aa(lp8152
S'-3'
p8153
ag10
aS'-561'
p8154
aS'74\r\n'
p8155
aa(lp8156
g20
aS'-3'
p8157
aS'-578'
p8158
aS'73\r\n'
p8159
aa(lp8160
g20
aS'-3'
p8161
aS'-571'
p8162
aS'71\r\n'
p8163
aa(lp8164
g69
ag10
aS'-569'
p8165
aS'76\r\n'
p8166
aa(lp8167
g20
ag64
aS'-571'
p8168
aS'71\r\n'
p8169
aa(lp8170
S'-4'
p8171
ag74
aS'-575'
p8172
aS'74\r\n'
p8173
aa(lp8174
g20
ag20
aS'-566'
p8175
aS'75\r\n'
p8176
aa(lp8177
S'-1'
p8178
ag20
aS'-565'
p8179
aS'72\r\n'
p8180
aa(lp8181
S'-4'
p8182
ag20
aS'-573'
p8183
aS'76\r\n'
p8184
aa(lp8185
S'-1'
p8186
ag10
aS'-570'
p8187
aS'75\r\n'
p8188
aa(lp8189
g20
ag64
aS'-572'
p8190
aS'73\r\n'
p8191
aa(lp8192
g64
ag64
aS'-568'
p8193
aS'72\r\n'
p8194
aa(lp8195
g64
ag74
aS'-560'
p8196
aS'75\r\n'
p8197
aa(lp8198
g64
aS'-1'
p8199
aS'-559'
p8200
aS'73\r\n'
p8201
aa(lp8202
g64
ag128
aS'-567'
p8203
aS'71\r\n'
p8204
aa(lp8205
S'-1'
p8206
ag64
aS'-572'
p8207
aS'76\r\n'
p8208
aa(lp8209
S'-2'
p8210
aS'-3'
p8211
aS'-583'
p8212
aS'71\r\n'
p8213
aa(lp8214
S'-3'
p8215
aS'-2'
p8216
aS'-581'
p8217
aS'76\r\n'
p8218
aa(lp8219
g69
aS'-1'
p8220
aS'-571'
p8221
aS'72\r\n'
p8222
aa(lp8223
g5
aS'-3'
p8224
aS'-567'
p8225
aS'75\r\n'
p8226
aa(lp8227
g69
aS'-5'
p8228
aS'-562'
p8229
aS'75\r\n'
p8230
aa(lp8231
g10
ag20
aS'-564'
p8232
aS'75\r\n'
p8233
aa(lp8234
g74
ag20
aS'-565'
p8235
aS'74\r\n'
p8236
aa(lp8237
g64
ag5
aS'-564'
p8238
aS'76\r\n'
p8239
aa(lp8240
g20
ag69
aS'-557'
p8241
aS'75\r\n'
p8242
aa(lp8243
S'-1'
p8244
ag74
aS'-564'
p8245
aS'71\r\n'
p8246
aa(lp8247
g64
ag5
aS'-565'
p8248
aS'73\r\n'
p8249
aa(lp8250
g20
ag586
aS'-571'
p8251
aS'76\r\n'
p8252
aa(lp8253
g5
ag20
aS'-572'
p8254
aS'74\r\n'
p8255
aa(lp8256
g69
aS'-1'
p8257
aS'-568'
p8258
aS'74\r\n'
p8259
aa(lp8260
g69
ag74
aS'-560'
p8261
aS'73\r\n'
p8262
aa(lp8263
g10
ag20
aS'-569'
p8264
aS'75\r\n'
p8265
aa(lp8266
g20
ag64
aS'-567'
p8267
aS'74\r\n'
p8268
aa(lp8269
g74
ag74
aS'-563'
p8270
aS'73\r\n'
p8271
aa(lp8272
g74
ag74
aS'-564'
p8273
aS'72\r\n'
p8274
aa(lp8275
g74
ag20
aS'-559'
p8276
aS'73\r\n'
p8277
aa(lp8278
g64
ag20
aS'-556'
p8279
aS'73\r\n'
p8280
aa(lp8281
S'-15'
p8282
aS'22'
p8283
aS'-546'
p8284
aS'76\r\n'
p8285
aa(lp8286
g20
aS'15'
p8287
aS'-583'
p8288
aS'71\r\n'
p8289
aa(lp8290
S'-6'
p8291
aS'12'
p8292
aS'-554'
p8293
aS'75\r\n'
p8294
aa(lp8295
g74
aS'-5'
p8296
aS'-569'
p8297
aS'73\r\n'
p8298
aa(lp8299
g64
aS'-14'
p8300
aS'-582'
p8301
aS'73\r\n'
p8302
aa(lp8303
g20
ag15
aS'-545'
p8304
aS'71\r\n'
p8305
aa(lp8306
g74
aS'20'
p8307
aS'-562'
p8308
aS'73\r\n'
p8309
aa(lp8310
S'-9'
p8311
aS'41'
p8312
aS'-562'
p8313
aS'74\r\n'
p8314
aa(lp8315
S'-10'
p8316
aS'37'
p8317
aS'-562'
p8318
aS'72\r\n'
p8319
aa(lp8320
S'-1'
p8321
aS'14'
p8322
aS'-566'
p8323
aS'76\r\n'
p8324
aa(lp8325
S'-1'
p8326
ag5
aS'-557'
p8327
aS'74\r\n'
p8328
aa(lp8329
g15
aS'-20'
p8330
aS'-567'
p8331
aS'73\r\n'
p8332
aa(lp8333
S'18'
p8334
aS'-38'
p8335
aS'-563'
p8336
aS'76\r\n'
p8337
aa(lp8338
S'23'
p8339
aS'-44'
p8340
aS'-570'
p8341
aS'75\r\n'
p8342
aa.